ARM GAS  C:\Users\zakis\AppData\Local\Temp\ccqpteAc.s 			page 1


   1              		.syntax unified
   2              		.cpu cortex-m3
   3              		.fpu softvfp
   4              		.eabi_attribute 20, 1
   5              		.eabi_attribute 21, 1
   6              		.eabi_attribute 23, 3
   7              		.eabi_attribute 24, 1
   8              		.eabi_attribute 25, 1
   9              		.eabi_attribute 26, 1
  10              		.eabi_attribute 30, 1
  11              		.eabi_attribute 34, 1
  12              		.eabi_attribute 18, 4
  13              		.thumb
  14              		.syntax unified
  15              		.file	"PWM.c"
  16              		.text
  17              	.Ltext0:
  18              		.cfi_sections	.debug_frame
  19              		.section	.text.PWM_Read,"ax",%progbits
  20              		.align	2
  21              		.global	PWM_Read
  22              		.thumb
  23              		.thumb_func
  24              		.type	PWM_Read, %function
  25              	PWM_Read:
  26              	.LFB110:
  27              		.file 1 "source\\bsw\\PWM.c"
   1:source\bsw/PWM.c **** /**
   2:source\bsw/PWM.c **** * \file PWM.c
   3:source\bsw/PWM.c **** * \author Z. Sadique
   4:source\bsw/PWM.c **** * \date 08.12.2023
   5:source\bsw/PWM.c **** *
   6:source\bsw/PWM.c **** * \brief Simple PWM driver
   7:source\bsw/PWM.c **** */
   8:source\bsw/PWM.c **** 
   9:source\bsw/PWM.c **** /*****************************************************************************/
  10:source\bsw/PWM.c **** /* Include files                                                             */
  11:source\bsw/PWM.c **** /*****************************************************************************/
  12:source\bsw/PWM.c **** #include "project.h"
  13:source\bsw/PWM.c **** #include "PWM.h"
  14:source\bsw/PWM.c **** 
  15:source\bsw/PWM.c **** 
  16:source\bsw/PWM.c **** 
  17:source\bsw/PWM.c **** 
  18:source\bsw/PWM.c **** /*****************************************************************************/
  19:source\bsw/PWM.c **** /* Local pre-processor symbols/macros ('#define')                            */
  20:source\bsw/PWM.c **** /*****************************************************************************/
  21:source\bsw/PWM.c **** 
  22:source\bsw/PWM.c **** /*****************************************************************************/
  23:source\bsw/PWM.c **** /* Global variable definitions (declared in header file with 'extern')       */
  24:source\bsw/PWM.c **** /*****************************************************************************/
  25:source\bsw/PWM.c **** 
  26:source\bsw/PWM.c **** /*****************************************************************************/
  27:source\bsw/PWM.c **** /* Local type definitions ('typedef')                                        */
  28:source\bsw/PWM.c **** /*****************************************************************************/
  29:source\bsw/PWM.c **** 
  30:source\bsw/PWM.c **** /*****************************************************************************/
ARM GAS  C:\Users\zakis\AppData\Local\Temp\ccqpteAc.s 			page 2


  31:source\bsw/PWM.c **** /* Local variable definitions ('static')                                     */
  32:source\bsw/PWM.c **** /*****************************************************************************/
  33:source\bsw/PWM.c **** 
  34:source\bsw/PWM.c **** 
  35:source\bsw/PWM.c **** 
  36:source\bsw/PWM.c **** /*****************************************************************************/
  37:source\bsw/PWM.c **** /* Local function prototypes ('static')                                      */
  38:source\bsw/PWM.c **** /*****************************************************************************/
  39:source\bsw/PWM.c **** 
  40:source\bsw/PWM.c **** 
  41:source\bsw/PWM.c **** /*****************************************************************************/
  42:source\bsw/PWM.c **** /* Function implementation - global ('extern') and local ('static')          */
  43:source\bsw/PWM.c **** /*****************************************************************************/
  44:source\bsw/PWM.c **** /**
  45:source\bsw/PWM.c ****  * @brief Reads the current value of a specified PWM channel.
  46:source\bsw/PWM.c ****  *
  47:source\bsw/PWM.c ****  * This function reads the current value of the specified PWM channel and returns the result.
  48:source\bsw/PWM.c ****  *
  49:source\bsw/PWM.c ****  * @param pwm The PWM channel identifier.
  50:source\bsw/PWM.c ****  * @return The current value of the specified PWM channel.
  51:source\bsw/PWM.c ****  */
  52:source\bsw/PWM.c **** uint16_t PWM_Read(ePWM_t pwm){
  28              		.loc 1 52 0
  29              		.cfi_startproc
  30              		@ args = 0, pretend = 0, frame = 0
  31              		@ frame_needed = 0, uses_anonymous_args = 0
  32              	.LVL0:
  33 0000 08B5     		push	{r3, lr}
  34              		.cfi_def_cfa_offset 8
  35              		.cfi_offset 3, -8
  36              		.cfi_offset 14, -4
  37              	.LVL1:
  53:source\bsw/PWM.c ****     uint16_t value = 0;
  54:source\bsw/PWM.c ****     switch (pwm){
  38              		.loc 1 54 0
  39 0002 0528     		cmp	r0, #5
  40 0004 19D8     		bhi	.L10
  41 0006 DFE800F0 		tbb	[pc, r0]
  42              	.L4:
  43 000a 03       		.byte	(.L3-.L4)/2
  44 000b 07       		.byte	(.L5-.L4)/2
  45 000c 0B       		.byte	(.L6-.L4)/2
  46 000d 0F       		.byte	(.L7-.L4)/2
  47 000e 12       		.byte	(.L8-.L4)/2
  48 000f 15       		.byte	(.L9-.L4)/2
  49              		.p2align 1
  50              	.L3:
  55:source\bsw/PWM.c ****         case Led_Red:
  56:source\bsw/PWM.c ****             value = PWM_led_red_ReadCompare();
  51              		.loc 1 56 0
  52 0010 FFF7FEFF 		bl	PWM_led_red_ReadCompare
  53              	.LVL2:
  54 0014 80B2     		uxth	r0, r0
  55              	.LVL3:
  57:source\bsw/PWM.c ****             break;
  56              		.loc 1 57 0
  57 0016 08BD     		pop	{r3, pc}
ARM GAS  C:\Users\zakis\AppData\Local\Temp\ccqpteAc.s 			page 3


  58              	.LVL4:
  59              	.L5:
  58:source\bsw/PWM.c ****             
  59:source\bsw/PWM.c ****         case Led_Yellow:
  60:source\bsw/PWM.c ****             value = PWM_led_yellow_ReadCompare();
  60              		.loc 1 60 0
  61 0018 FFF7FEFF 		bl	PWM_led_yellow_ReadCompare
  62              	.LVL5:
  63 001c 80B2     		uxth	r0, r0
  64              	.LVL6:
  61:source\bsw/PWM.c ****             break;
  65              		.loc 1 61 0
  66 001e 08BD     		pop	{r3, pc}
  67              	.LVL7:
  68              	.L6:
  62:source\bsw/PWM.c ****             
  63:source\bsw/PWM.c ****         case Led_Green:
  64:source\bsw/PWM.c ****             value = PWM_led_green_ReadCompare();
  69              		.loc 1 64 0
  70 0020 FFF7FEFF 		bl	PWM_led_green_ReadCompare
  71              	.LVL8:
  72 0024 80B2     		uxth	r0, r0
  73              	.LVL9:
  65:source\bsw/PWM.c ****             break;
  74              		.loc 1 65 0
  75 0026 08BD     		pop	{r3, pc}
  76              	.LVL10:
  77              	.L7:
  66:source\bsw/PWM.c ****             
  67:source\bsw/PWM.c ****         case Led_RGB_Red:
  68:source\bsw/PWM.c ****             value = PWM_RGB_red_ReadCompare();
  78              		.loc 1 68 0
  79 0028 FFF7FEFF 		bl	PWM_RGB_red_ReadCompare
  80              	.LVL11:
  69:source\bsw/PWM.c ****             break;
  81              		.loc 1 69 0
  82 002c 08BD     		pop	{r3, pc}
  83              	.LVL12:
  84              	.L8:
  70:source\bsw/PWM.c ****             
  71:source\bsw/PWM.c ****         case Led_RGB_Green:
  72:source\bsw/PWM.c ****             value = PWM_RGB_green_ReadCompare();
  85              		.loc 1 72 0
  86 002e FFF7FEFF 		bl	PWM_RGB_green_ReadCompare
  87              	.LVL13:
  73:source\bsw/PWM.c ****             break;
  88              		.loc 1 73 0
  89 0032 08BD     		pop	{r3, pc}
  90              	.LVL14:
  91              	.L9:
  74:source\bsw/PWM.c ****             
  75:source\bsw/PWM.c ****         case Led_RGB_Blue:
  76:source\bsw/PWM.c ****             value = PWM_RGB_blue_ReadCompare();
  92              		.loc 1 76 0
  93 0034 FFF7FEFF 		bl	PWM_RGB_blue_ReadCompare
  94              	.LVL15:
  77:source\bsw/PWM.c ****             break;   
ARM GAS  C:\Users\zakis\AppData\Local\Temp\ccqpteAc.s 			page 4


  95              		.loc 1 77 0
  96 0038 08BD     		pop	{r3, pc}
  97              	.LVL16:
  98              	.L10:
  53:source\bsw/PWM.c ****     switch (pwm){
  99              		.loc 1 53 0
 100 003a 0020     		movs	r0, #0
 101              	.LVL17:
  78:source\bsw/PWM.c ****     }
  79:source\bsw/PWM.c ****     
  80:source\bsw/PWM.c ****     return value;  
  81:source\bsw/PWM.c **** }
 102              		.loc 1 81 0
 103 003c 08BD     		pop	{r3, pc}
 104              		.cfi_endproc
 105              	.LFE110:
 106              		.size	PWM_Read, .-PWM_Read
 107 003e 00BF     		.section	.text.PWM_Write,"ax",%progbits
 108              		.align	2
 109              		.global	PWM_Write
 110              		.thumb
 111              		.thumb_func
 112              		.type	PWM_Write, %function
 113              	PWM_Write:
 114              	.LFB111:
  82:source\bsw/PWM.c **** 
  83:source\bsw/PWM.c **** /**
  84:source\bsw/PWM.c ****  * @brief Writes a value to the specified PWM channel.
  85:source\bsw/PWM.c ****  *
  86:source\bsw/PWM.c ****  * This function writes the given value to the specified PWM channel.
  87:source\bsw/PWM.c ****  *
  88:source\bsw/PWM.c ****  * @param pwm The PWM channel identifier.
  89:source\bsw/PWM.c ****  * @param value The value to be written to the PWM channel.
  90:source\bsw/PWM.c ****  * @return Returns an RC_t (Return Code) indicating the success or failure of the operation.
  91:source\bsw/PWM.c ****  */
  92:source\bsw/PWM.c **** RC_t PWM_Write(ePWM_t pwm, uint16_t value) {
 115              		.loc 1 92 0
 116              		.cfi_startproc
 117              		@ args = 0, pretend = 0, frame = 0
 118              		@ frame_needed = 0, uses_anonymous_args = 0
 119              	.LVL18:
 120 0000 08B5     		push	{r3, lr}
 121              		.cfi_def_cfa_offset 8
 122              		.cfi_offset 3, -8
 123              		.cfi_offset 14, -4
  93:source\bsw/PWM.c ****     switch (pwm) {
 124              		.loc 1 93 0
 125 0002 0528     		cmp	r0, #5
 126 0004 1BD8     		bhi	.L13
 127 0006 DFE800F0 		tbb	[pc, r0]
 128              	.L15:
 129 000a 03       		.byte	(.L14-.L15)/2
 130 000b 07       		.byte	(.L16-.L15)/2
 131 000c 0B       		.byte	(.L17-.L15)/2
 132 000d 0F       		.byte	(.L18-.L15)/2
 133 000e 13       		.byte	(.L19-.L15)/2
 134 000f 17       		.byte	(.L20-.L15)/2
ARM GAS  C:\Users\zakis\AppData\Local\Temp\ccqpteAc.s 			page 5


 135              		.p2align 1
 136              	.L14:
  94:source\bsw/PWM.c ****         case Led_Red:
  95:source\bsw/PWM.c ****             PWM_led_red_WriteCompare(value);
 137              		.loc 1 95 0
 138 0010 C8B2     		uxtb	r0, r1
 139              	.LVL19:
 140 0012 FFF7FEFF 		bl	PWM_led_red_WriteCompare
 141              	.LVL20:
  96:source\bsw/PWM.c ****             break;
 142              		.loc 1 96 0
 143 0016 12E0     		b	.L13
 144              	.LVL21:
 145              	.L16:
  97:source\bsw/PWM.c **** 
  98:source\bsw/PWM.c ****         case Led_Yellow:
  99:source\bsw/PWM.c ****             PWM_led_yellow_WriteCompare(value);
 146              		.loc 1 99 0
 147 0018 C8B2     		uxtb	r0, r1
 148              	.LVL22:
 149 001a FFF7FEFF 		bl	PWM_led_yellow_WriteCompare
 150              	.LVL23:
 100:source\bsw/PWM.c ****             break;
 151              		.loc 1 100 0
 152 001e 0EE0     		b	.L13
 153              	.LVL24:
 154              	.L17:
 101:source\bsw/PWM.c **** 
 102:source\bsw/PWM.c ****         case Led_Green:
 103:source\bsw/PWM.c ****             PWM_led_green_WriteCompare(value);
 155              		.loc 1 103 0
 156 0020 C8B2     		uxtb	r0, r1
 157              	.LVL25:
 158 0022 FFF7FEFF 		bl	PWM_led_green_WriteCompare
 159              	.LVL26:
 104:source\bsw/PWM.c ****             break;
 160              		.loc 1 104 0
 161 0026 0AE0     		b	.L13
 162              	.LVL27:
 163              	.L18:
 105:source\bsw/PWM.c **** 
 106:source\bsw/PWM.c ****         case Led_RGB_Red:
 107:source\bsw/PWM.c ****             PWM_RGB_red_WriteCompare(value);
 164              		.loc 1 107 0
 165 0028 0846     		mov	r0, r1
 166              	.LVL28:
 167 002a FFF7FEFF 		bl	PWM_RGB_red_WriteCompare
 168              	.LVL29:
 108:source\bsw/PWM.c ****             break;
 169              		.loc 1 108 0
 170 002e 06E0     		b	.L13
 171              	.LVL30:
 172              	.L19:
 109:source\bsw/PWM.c **** 
 110:source\bsw/PWM.c ****         case Led_RGB_Green:
 111:source\bsw/PWM.c ****             PWM_RGB_green_WriteCompare(value);
 173              		.loc 1 111 0
ARM GAS  C:\Users\zakis\AppData\Local\Temp\ccqpteAc.s 			page 6


 174 0030 0846     		mov	r0, r1
 175              	.LVL31:
 176 0032 FFF7FEFF 		bl	PWM_RGB_green_WriteCompare
 177              	.LVL32:
 112:source\bsw/PWM.c ****             break;
 178              		.loc 1 112 0
 179 0036 02E0     		b	.L13
 180              	.LVL33:
 181              	.L20:
 113:source\bsw/PWM.c **** 
 114:source\bsw/PWM.c ****         case Led_RGB_Blue:
 115:source\bsw/PWM.c ****             PWM_RGB_blue_WriteCompare(value);
 182              		.loc 1 115 0
 183 0038 0846     		mov	r0, r1
 184              	.LVL34:
 185 003a FFF7FEFF 		bl	PWM_RGB_blue_WriteCompare
 186              	.LVL35:
 187              	.L13:
 116:source\bsw/PWM.c ****             break;
 117:source\bsw/PWM.c ****     }
 118:source\bsw/PWM.c **** 
 119:source\bsw/PWM.c ****     return RC_SUCCESS;
 120:source\bsw/PWM.c **** }
 188              		.loc 1 120 0
 189 003e 0020     		movs	r0, #0
 190 0040 08BD     		pop	{r3, pc}
 191              		.cfi_endproc
 192              	.LFE111:
 193              		.size	PWM_Write, .-PWM_Write
 194 0042 00BF     		.section	.text.PWM_Init,"ax",%progbits
 195              		.align	2
 196              		.global	PWM_Init
 197              		.thumb
 198              		.thumb_func
 199              		.type	PWM_Init, %function
 200              	PWM_Init:
 201              	.LFB112:
 121:source\bsw/PWM.c **** 
 122:source\bsw/PWM.c **** 
 123:source\bsw/PWM.c **** /**
 124:source\bsw/PWM.c ****  * @brief Initializes the specified PWM channel.
 125:source\bsw/PWM.c ****  *
 126:source\bsw/PWM.c ****  * This function initializes the specified PWM channel by starting it and setting the initial value
 127:source\bsw/PWM.c ****  *
 128:source\bsw/PWM.c ****  * @param pwm The PWM channel identifier.
 129:source\bsw/PWM.c ****  * @return Returns an RC_t (Return Code) indicating the success or failure of the operation.
 130:source\bsw/PWM.c ****  */
 131:source\bsw/PWM.c **** RC_t PWM_Init(ePWM_t pwm) {
 202              		.loc 1 131 0
 203              		.cfi_startproc
 204              		@ args = 0, pretend = 0, frame = 0
 205              		@ frame_needed = 0, uses_anonymous_args = 0
 206              	.LVL36:
 207 0000 08B5     		push	{r3, lr}
 208              		.cfi_def_cfa_offset 8
 209              		.cfi_offset 3, -8
 210              		.cfi_offset 14, -4
ARM GAS  C:\Users\zakis\AppData\Local\Temp\ccqpteAc.s 			page 7


 132:source\bsw/PWM.c ****     switch (pwm) {
 211              		.loc 1 132 0
 212 0002 0528     		cmp	r0, #5
 213 0004 27D8     		bhi	.L23
 214 0006 DFE800F0 		tbb	[pc, r0]
 215              	.L25:
 216 000a 03       		.byte	(.L24-.L25)/2
 217 000b 09       		.byte	(.L26-.L25)/2
 218 000c 0F       		.byte	(.L27-.L25)/2
 219 000d 15       		.byte	(.L28-.L25)/2
 220 000e 1B       		.byte	(.L29-.L25)/2
 221 000f 21       		.byte	(.L30-.L25)/2
 222              		.p2align 1
 223              	.L24:
 133:source\bsw/PWM.c ****         case Led_Red:
 134:source\bsw/PWM.c ****             PWM_led_red_Start();
 224              		.loc 1 134 0
 225 0010 FFF7FEFF 		bl	PWM_led_red_Start
 226              	.LVL37:
 135:source\bsw/PWM.c ****             PWM_led_red_WriteCompare(0);
 227              		.loc 1 135 0
 228 0014 0020     		movs	r0, #0
 229 0016 FFF7FEFF 		bl	PWM_led_red_WriteCompare
 230              	.LVL38:
 136:source\bsw/PWM.c ****             break;
 231              		.loc 1 136 0
 232 001a 1CE0     		b	.L23
 233              	.LVL39:
 234              	.L26:
 137:source\bsw/PWM.c **** 
 138:source\bsw/PWM.c ****         case Led_Yellow:
 139:source\bsw/PWM.c ****             PWM_led_yellow_Start();
 235              		.loc 1 139 0
 236 001c FFF7FEFF 		bl	PWM_led_yellow_Start
 237              	.LVL40:
 140:source\bsw/PWM.c ****             PWM_led_yellow_WriteCompare(0);
 238              		.loc 1 140 0
 239 0020 0020     		movs	r0, #0
 240 0022 FFF7FEFF 		bl	PWM_led_yellow_WriteCompare
 241              	.LVL41:
 141:source\bsw/PWM.c ****             break;
 242              		.loc 1 141 0
 243 0026 16E0     		b	.L23
 244              	.LVL42:
 245              	.L27:
 142:source\bsw/PWM.c **** 
 143:source\bsw/PWM.c ****         case Led_Green:
 144:source\bsw/PWM.c ****             PWM_led_green_Start();
 246              		.loc 1 144 0
 247 0028 FFF7FEFF 		bl	PWM_led_green_Start
 248              	.LVL43:
 145:source\bsw/PWM.c ****             PWM_led_green_WriteCompare(0);
 249              		.loc 1 145 0
 250 002c 0020     		movs	r0, #0
 251 002e FFF7FEFF 		bl	PWM_led_green_WriteCompare
 252              	.LVL44:
 146:source\bsw/PWM.c ****             break;
ARM GAS  C:\Users\zakis\AppData\Local\Temp\ccqpteAc.s 			page 8


 253              		.loc 1 146 0
 254 0032 10E0     		b	.L23
 255              	.LVL45:
 256              	.L28:
 147:source\bsw/PWM.c **** 
 148:source\bsw/PWM.c ****         case Led_RGB_Red:
 149:source\bsw/PWM.c ****             PWM_RGB_red_Start();
 257              		.loc 1 149 0
 258 0034 FFF7FEFF 		bl	PWM_RGB_red_Start
 259              	.LVL46:
 150:source\bsw/PWM.c ****             PWM_RGB_red_WriteCompare(0);
 260              		.loc 1 150 0
 261 0038 0020     		movs	r0, #0
 262 003a FFF7FEFF 		bl	PWM_RGB_red_WriteCompare
 263              	.LVL47:
 151:source\bsw/PWM.c ****             break;
 264              		.loc 1 151 0
 265 003e 0AE0     		b	.L23
 266              	.LVL48:
 267              	.L29:
 152:source\bsw/PWM.c **** 
 153:source\bsw/PWM.c ****         case Led_RGB_Green:
 154:source\bsw/PWM.c ****             PWM_RGB_green_Start();
 268              		.loc 1 154 0
 269 0040 FFF7FEFF 		bl	PWM_RGB_green_Start
 270              	.LVL49:
 155:source\bsw/PWM.c ****             PWM_RGB_green_WriteCompare(0);
 271              		.loc 1 155 0
 272 0044 0020     		movs	r0, #0
 273 0046 FFF7FEFF 		bl	PWM_RGB_green_WriteCompare
 274              	.LVL50:
 156:source\bsw/PWM.c ****             break;
 275              		.loc 1 156 0
 276 004a 04E0     		b	.L23
 277              	.LVL51:
 278              	.L30:
 157:source\bsw/PWM.c **** 
 158:source\bsw/PWM.c ****         case Led_RGB_Blue:
 159:source\bsw/PWM.c ****             PWM_RGB_blue_Start();
 279              		.loc 1 159 0
 280 004c FFF7FEFF 		bl	PWM_RGB_blue_Start
 281              	.LVL52:
 160:source\bsw/PWM.c ****             PWM_RGB_blue_WriteCompare(0);
 282              		.loc 1 160 0
 283 0050 0020     		movs	r0, #0
 284 0052 FFF7FEFF 		bl	PWM_RGB_blue_WriteCompare
 285              	.LVL53:
 286              	.L23:
 161:source\bsw/PWM.c ****             break;
 162:source\bsw/PWM.c ****     }
 163:source\bsw/PWM.c **** 
 164:source\bsw/PWM.c ****     return RC_SUCCESS;
 165:source\bsw/PWM.c **** }
 287              		.loc 1 165 0
 288 0056 0020     		movs	r0, #0
 289 0058 08BD     		pop	{r3, pc}
 290              		.cfi_endproc
ARM GAS  C:\Users\zakis\AppData\Local\Temp\ccqpteAc.s 			page 9


 291              	.LFE112:
 292              		.size	PWM_Init, .-PWM_Init
 293 005a 00BF     		.text
 294              	.Letext0:
 295              		.file 2 "c:\\program files (x86)\\cypress\\psoc creator\\4.4\\psoc creator\\import\\gnu\\arm\\5.4.
 296              		.file 3 "c:\\program files (x86)\\cypress\\psoc creator\\4.4\\psoc creator\\import\\gnu\\arm\\5.4.
 297              		.file 4 "Generated_Source\\PSoC5/ErikaOS_common_ee_types.inc"
 298              		.file 5 "Generated_Source\\PSoC5/ErikaOS_cortex_mx_ee_cpu.inc"
 299              		.file 6 "source\\bsw\\global.h"
 300              		.file 7 "source\\bsw\\PWM.h"
 301              		.file 8 "Generated_Source\\PSoC5/ErikaOS_ee_oo_intfunc.inc"
 302              		.file 9 "Generated_Source\\PSoC5/ErikaOS_cortex_mx_ee_context.inc"
 303              		.file 10 "Generated_Source\\PSoC5/ErikaOS_common_ee_primitives.inc"
 304              		.file 11 "Generated_Source\\PSoC5/core_cm3.h"
 305              		.file 12 "Generated_Source\\PSoC5/PWM_led_red.h"
 306              		.file 13 "Generated_Source\\PSoC5/PWM_led_yellow.h"
 307              		.file 14 "Generated_Source\\PSoC5/PWM_led_green.h"
 308              		.file 15 "Generated_Source\\PSoC5/PWM_RGB_red.h"
 309              		.file 16 "Generated_Source\\PSoC5/PWM_RGB_green.h"
 310              		.file 17 "Generated_Source\\PSoC5/PWM_RGB_blue.h"