ARM GAS  C:\Users\zakis\AppData\Local\Temp\cclDrXun.s 			page 1


   1              		.syntax unified
   2              		.cpu cortex-m3
   3              		.fpu softvfp
   4              		.eabi_attribute 20, 1
   5              		.eabi_attribute 21, 1
   6              		.eabi_attribute 23, 3
   7              		.eabi_attribute 24, 1
   8              		.eabi_attribute 25, 1
   9              		.eabi_attribute 26, 1
  10              		.eabi_attribute 30, 1
  11              		.eabi_attribute 34, 1
  12              		.eabi_attribute 18, 4
  13              		.thumb
  14              		.syntax unified
  15              		.file	"reactionGame.c"
  16              		.text
  17              	.Ltext0:
  18              		.cfi_sections	.debug_frame
  19              		.section	.text.REACTION_init,"ax",%progbits
  20              		.align	2
  21              		.global	REACTION_init
  22              		.thumb
  23              		.thumb_func
  24              		.type	REACTION_init, %function
  25              	REACTION_init:
  26              	.LFB110:
  27              		.file 1 "source\\asw\\reactionGame.c"
   1:source\asw/reactionGame.c **** /**
   2:source\asw/reactionGame.c **** * \file arcadian.h
   3:source\asw/reactionGame.c **** * \author Z. Sadique
   4:source\asw/reactionGame.c **** * \date 08.12.2023
   5:source\asw/reactionGame.c **** *
   6:source\asw/reactionGame.c **** *
   7:source\asw/reactionGame.c **** * \brief Implements the Reaction Game logic
   8:source\asw/reactionGame.c **** *
   9:source\asw/reactionGame.c **** * \copyright Copyright ©2016
  10:source\asw/reactionGame.c **** * Department of electrical engineering and information technology, Hochschule Darmstadt - Universit
  11:source\asw/reactionGame.c **** * Permission to use, copy, modify, and distribute this software and its documentation for education
  12:source\asw/reactionGame.c **** * (unless permitted by h_da) and official h_da projects, is hereby granted for enrolled students of
  13:source\asw/reactionGame.c **** * this paragraph and the following paragraph appear in all copies, modifications, and distributions
  14:source\asw/reactionGame.c **** * Contact Prof.Dr.-Ing. Peter Fromm, peter.fromm@h-da.de, Birkenweg 8 64295 Darmstadt - GERMANY for
  15:source\asw/reactionGame.c **** *
  16:source\asw/reactionGame.c **** * \warning This software is a PROTOTYPE version and is not designed or intended for use in producti
  17:source\asw/reactionGame.c **** * The user represents and warrants that it will NOT use or redistribute the Software for such purpo
  18:source\asw/reactionGame.c **** * This prototype is for research purposes only. This software is provided "AS IS," without a warran
  19:source\asw/reactionGame.c **** */
  20:source\asw/reactionGame.c **** 
  21:source\asw/reactionGame.c **** /*****************************************************************************/
  22:source\asw/reactionGame.c **** /* Include files                                                             */
  23:source\asw/reactionGame.c **** /*****************************************************************************/
  24:source\asw/reactionGame.c **** 
  25:source\asw/reactionGame.c **** #include <time.h>
  26:source\asw/reactionGame.c **** #include <stdlib.h>
  27:source\asw/reactionGame.c **** 
  28:source\asw/reactionGame.c **** #include "project.h"
  29:source\asw/reactionGame.c **** #include "reactionGame.h"
  30:source\asw/reactionGame.c **** #include "seven.h"
ARM GAS  C:\Users\zakis\AppData\Local\Temp\cclDrXun.s 			page 2


  31:source\asw/reactionGame.c **** #include "button.h"
  32:source\asw/reactionGame.c **** #include "Counter.h"
  33:source\asw/reactionGame.c **** /*****************************************************************************/
  34:source\asw/reactionGame.c **** /* Local pre-processor symbols/macros ('#define')                            */
  35:source\asw/reactionGame.c **** /*****************************************************************************/
  36:source\asw/reactionGame.c **** 
  37:source\asw/reactionGame.c **** /*****************************************************************************/
  38:source\asw/reactionGame.c **** /* Global variable definitions (declared in header file with 'extern')       */
  39:source\asw/reactionGame.c **** /*****************************************************************************/
  40:source\asw/reactionGame.c **** 
  41:source\asw/reactionGame.c **** /*****************************************************************************/
  42:source\asw/reactionGame.c **** /* Local type definitions ('typedef')                                        */
  43:source\asw/reactionGame.c **** /*****************************************************************************/
  44:source\asw/reactionGame.c **** 
  45:source\asw/reactionGame.c **** /*****************************************************************************/
  46:source\asw/reactionGame.c **** /* Local variable definitions ('static')                                     */
  47:source\asw/reactionGame.c **** /*****************************************************************************/
  48:source\asw/reactionGame.c **** 
  49:source\asw/reactionGame.c **** /**
  50:source\asw/reactionGame.c ****  * @brief Variable representing the clock frequency for the reaction game module.
  51:source\asw/reactionGame.c ****  */
  52:source\asw/reactionGame.c **** static uint16_t countInOneSec = 12000;
  53:source\asw/reactionGame.c **** 
  54:source\asw/reactionGame.c **** /*****************************************************************************/
  55:source\asw/reactionGame.c **** /* Local function prototypes ('static')                                      */
  56:source\asw/reactionGame.c **** /*****************************************************************************/
  57:source\asw/reactionGame.c **** 
  58:source\asw/reactionGame.c **** 
  59:source\asw/reactionGame.c **** /*****************************************************************************/
  60:source\asw/reactionGame.c **** /* Function implementation - global ('extern') and local ('static')          */
  61:source\asw/reactionGame.c **** /*****************************************************************************/
  62:source\asw/reactionGame.c **** 
  63:source\asw/reactionGame.c **** /**
  64:source\asw/reactionGame.c ****  * @brief Initializes the REACTION module.
  65:source\asw/reactionGame.c ****  *
  66:source\asw/reactionGame.c ****  * This function initializes the Reaction Game module by performing the following steps:
  67:source\asw/reactionGame.c ****  * - Initializing UART communication.
  68:source\asw/reactionGame.c ****  * - Starting the clock counter for the Reaction Game.
  69:source\asw/reactionGame.c ****  * - Seeding the random number generator.
  70:source\asw/reactionGame.c ****  * - Setting initial values for the game state, maximum rounds, and round duration.
  71:source\asw/reactionGame.c ****  * - Displaying a welcome message on the UART.
  72:source\asw/reactionGame.c ****  * - Setting the game state to waiting for the start of a new round.
  73:source\asw/reactionGame.c ****  * - Setting the initial round number to 1.
  74:source\asw/reactionGame.c ****  *
  75:source\asw/reactionGame.c ****  * @param game Pointer to the Game_t structure.
  76:source\asw/reactionGame.c ****  * @return Returns an RC_t (Return Code) indicating the success or failure of the operation.
  77:source\asw/reactionGame.c ****  */
  78:source\asw/reactionGame.c **** RC_t REACTION_init(Game_t *game) {
  28              		.loc 1 78 0
  29              		.cfi_startproc
  30              		@ args = 0, pretend = 0, frame = 0
  31              		@ frame_needed = 0, uses_anonymous_args = 0
  32              	.LVL0:
  33 0000 38B5     		push	{r3, r4, r5, lr}
  34              		.cfi_def_cfa_offset 16
  35              		.cfi_offset 3, -16
  36              		.cfi_offset 4, -12
ARM GAS  C:\Users\zakis\AppData\Local\Temp\cclDrXun.s 			page 3


  37              		.cfi_offset 5, -8
  38              		.cfi_offset 14, -4
  39 0002 0446     		mov	r4, r0
  79:source\asw/reactionGame.c ****     /* Initialize UART communication. */
  80:source\asw/reactionGame.c ****     UART_Logs_Start();
  40              		.loc 1 80 0
  41 0004 FFF7FEFF 		bl	UART_Logs_Start
  42              	.LVL1:
  81:source\asw/reactionGame.c **** 
  82:source\asw/reactionGame.c ****     /* Start the clock counter for the Reaction Game. */
  83:source\asw/reactionGame.c ****     Clock_Counter_RG_Start();
  43              		.loc 1 83 0
  44 0008 FFF7FEFF 		bl	Clock_Counter_RG_Start
  45              	.LVL2:
  84:source\asw/reactionGame.c **** 
  85:source\asw/reactionGame.c ****     /* Seed the random number generator. */
  86:source\asw/reactionGame.c ****     srand(time(NULL));
  46              		.loc 1 86 0
  47 000c 0020     		movs	r0, #0
  48 000e FFF7FEFF 		bl	time
  49              	.LVL3:
  50 0012 FFF7FEFF 		bl	srand
  51              	.LVL4:
  87:source\asw/reactionGame.c **** 
  88:source\asw/reactionGame.c ****     /* Set initial values for game state, maximum rounds, and round duration. */
  89:source\asw/reactionGame.c ****     game->gameState = None;
  52              		.loc 1 89 0
  53 0016 0323     		movs	r3, #3
  54 0018 2370     		strb	r3, [r4]
  90:source\asw/reactionGame.c ****     game->maxRounds = 10;
  55              		.loc 1 90 0
  56 001a 0A23     		movs	r3, #10
  57 001c 6371     		strb	r3, [r4, #5]
  91:source\asw/reactionGame.c ****     game->durationOfRoundSec = 1;
  58              		.loc 1 91 0
  59 001e 0125     		movs	r5, #1
  60 0020 A571     		strb	r5, [r4, #6]
  92:source\asw/reactionGame.c **** 
  93:source\asw/reactionGame.c ****     /* Display welcome message on UART. */
  94:source\asw/reactionGame.c ****     UART_Logs_PutString("\nWelcome to the Reaction Game\n");
  61              		.loc 1 94 0
  62 0022 0648     		ldr	r0, .L3
  63 0024 FFF7FEFF 		bl	UART_Logs_PutString
  64              	.LVL5:
  95:source\asw/reactionGame.c ****     UART_Logs_PutString("Press any of the right buttons for '1' and left buttons for '2' \n");
  65              		.loc 1 95 0
  66 0028 0548     		ldr	r0, .L3+4
  67 002a FFF7FEFF 		bl	UART_Logs_PutString
  68              	.LVL6:
  96:source\asw/reactionGame.c **** 
  97:source\asw/reactionGame.c ****     UART_Logs_PutString("Press any key to begin\n\n");
  69              		.loc 1 97 0
  70 002e 0548     		ldr	r0, .L3+8
  71 0030 FFF7FEFF 		bl	UART_Logs_PutString
  72              	.LVL7:
  98:source\asw/reactionGame.c **** 
  99:source\asw/reactionGame.c ****     /* Set the game state to waiting for the start of a new round. */
ARM GAS  C:\Users\zakis\AppData\Local\Temp\cclDrXun.s 			page 4


 100:source\asw/reactionGame.c ****     game->gameState = IsWaitingRoundStart;
  73              		.loc 1 100 0
  74 0034 0020     		movs	r0, #0
  75 0036 2070     		strb	r0, [r4]
 101:source\asw/reactionGame.c ****     /* Set the initial round number to 1. */
 102:source\asw/reactionGame.c ****     game->roundNumber = 1;
  76              		.loc 1 102 0
  77 0038 6570     		strb	r5, [r4, #1]
 103:source\asw/reactionGame.c **** 
 104:source\asw/reactionGame.c ****     return RC_SUCCESS;
 105:source\asw/reactionGame.c **** }
  78              		.loc 1 105 0
  79 003a 38BD     		pop	{r3, r4, r5, pc}
  80              	.LVL8:
  81              	.L4:
  82              		.align	2
  83              	.L3:
  84 003c 00000000 		.word	.LC0
  85 0040 20000000 		.word	.LC1
  86 0044 64000000 		.word	.LC2
  87              		.cfi_endproc
  88              	.LFE110:
  89              		.size	REACTION_init, .-REACTION_init
  90              		.section	.text.REACTION_resetGame,"ax",%progbits
  91              		.align	2
  92              		.global	REACTION_resetGame
  93              		.thumb
  94              		.thumb_func
  95              		.type	REACTION_resetGame, %function
  96              	REACTION_resetGame:
  97              	.LFB111:
 106:source\asw/reactionGame.c **** 
 107:source\asw/reactionGame.c **** /**
 108:source\asw/reactionGame.c ****  * @brief Resets the game state for playing again.
 109:source\asw/reactionGame.c ****  *
 110:source\asw/reactionGame.c ****  * This function resets the game state to prepare for playing again. It displays a
 111:source\asw/reactionGame.c ****  * message on UART, resets the round number, total time, correct presses, and sets
 112:source\asw/reactionGame.c ****  * the game state to waiting for the start of a new round.
 113:source\asw/reactionGame.c ****  *
 114:source\asw/reactionGame.c ****  * @param game Pointer to the Game_t structure containing game details.
 115:source\asw/reactionGame.c ****  * @return Returns an RC_t (Return Code) indicating the success or failure of the operation.
 116:source\asw/reactionGame.c ****  */
 117:source\asw/reactionGame.c **** RC_t REACTION_resetGame(Game_t *game) {
  98              		.loc 1 117 0
  99              		.cfi_startproc
 100              		@ args = 0, pretend = 0, frame = 0
 101              		@ frame_needed = 0, uses_anonymous_args = 0
 102              	.LVL9:
 103 0000 10B5     		push	{r4, lr}
 104              		.cfi_def_cfa_offset 8
 105              		.cfi_offset 4, -8
 106              		.cfi_offset 14, -4
 107 0002 0446     		mov	r4, r0
 118:source\asw/reactionGame.c ****     /* Display a message on UART. */
 119:source\asw/reactionGame.c ****     //UART_Logs_PutString("\nReset controller to play again\n");
 120:source\asw/reactionGame.c ****     UART_Logs_PutString("\nPress any key to play again\n\n");
 108              		.loc 1 120 0
ARM GAS  C:\Users\zakis\AppData\Local\Temp\cclDrXun.s 			page 5


 109 0004 0548     		ldr	r0, .L7
 110              	.LVL10:
 111 0006 FFF7FEFF 		bl	UART_Logs_PutString
 112              	.LVL11:
 121:source\asw/reactionGame.c **** 
 122:source\asw/reactionGame.c ****     /* Reset game parameters. */
 123:source\asw/reactionGame.c ****     game->roundNumber = 1;
 113              		.loc 1 123 0
 114 000a 0123     		movs	r3, #1
 115 000c 6370     		strb	r3, [r4, #1]
 124:source\asw/reactionGame.c ****     game->maxRounds = 10;
 116              		.loc 1 124 0
 117 000e 0A23     		movs	r3, #10
 118 0010 6371     		strb	r3, [r4, #5]
 125:source\asw/reactionGame.c ****     game->totalTime = 0;
 119              		.loc 1 125 0
 120 0012 0020     		movs	r0, #0
 121 0014 6080     		strh	r0, [r4, #2]	@ movhi
 126:source\asw/reactionGame.c ****     game->correctPresses = 0;
 122              		.loc 1 126 0
 123 0016 2071     		strb	r0, [r4, #4]
 127:source\asw/reactionGame.c ****     game->gameState = IsWaitingRoundStart;
 124              		.loc 1 127 0
 125 0018 2070     		strb	r0, [r4]
 128:source\asw/reactionGame.c ****     
 129:source\asw/reactionGame.c ****     return RC_SUCCESS;
 130:source\asw/reactionGame.c **** }
 126              		.loc 1 130 0
 127 001a 10BD     		pop	{r4, pc}
 128              	.LVL12:
 129              	.L8:
 130              		.align	2
 131              	.L7:
 132 001c 80000000 		.word	.LC3
 133              		.cfi_endproc
 134              	.LFE111:
 135              		.size	REACTION_resetGame, .-REACTION_resetGame
 136              		.section	.text.REACTION_generateRandomNum,"ax",%progbits
 137              		.align	2
 138              		.global	REACTION_generateRandomNum
 139              		.thumb
 140              		.thumb_func
 141              		.type	REACTION_generateRandomNum, %function
 142              	REACTION_generateRandomNum:
 143              	.LFB112:
 131:source\asw/reactionGame.c **** 
 132:source\asw/reactionGame.c **** /**
 133:source\asw/reactionGame.c ****  * @brief Generates a random number within a specified limit.
 134:source\asw/reactionGame.c ****  *
 135:source\asw/reactionGame.c ****  * This function generates a random number within the specified limit and
 136:source\asw/reactionGame.c ****  * returns it through the provided pointer.
 137:source\asw/reactionGame.c ****  *
 138:source\asw/reactionGame.c ****  * @param randomNumber Pointer to the variable where the random number will be stored.
 139:source\asw/reactionGame.c ****  * @param limit The upper limit for the random number (exclusive).
 140:source\asw/reactionGame.c ****  * @return Returns an RC_t (Return Code) indicating the success or failure of the operation.
 141:source\asw/reactionGame.c ****  */
 142:source\asw/reactionGame.c **** RC_t REACTION_generateRandomNum(uint16_t *randomNumber, uint8_t limit) {
ARM GAS  C:\Users\zakis\AppData\Local\Temp\cclDrXun.s 			page 6


 144              		.loc 1 142 0
 145              		.cfi_startproc
 146              		@ args = 0, pretend = 0, frame = 0
 147              		@ frame_needed = 0, uses_anonymous_args = 0
 148              	.LVL13:
 149 0000 38B5     		push	{r3, r4, r5, lr}
 150              		.cfi_def_cfa_offset 16
 151              		.cfi_offset 3, -16
 152              		.cfi_offset 4, -12
 153              		.cfi_offset 5, -8
 154              		.cfi_offset 14, -4
 155 0002 0546     		mov	r5, r0
 156 0004 0C46     		mov	r4, r1
 143:source\asw/reactionGame.c ****     /**
 144:source\asw/reactionGame.c ****      * Generate a random number using the rand() function.
 145:source\asw/reactionGame.c ****      * The generated number is within the range [1, limit].
 146:source\asw/reactionGame.c ****      */
 147:source\asw/reactionGame.c ****     *randomNumber = rand() % limit + 1;
 157              		.loc 1 147 0
 158 0006 FFF7FEFF 		bl	rand
 159              	.LVL14:
 160 000a 90FBF4F3 		sdiv	r3, r0, r4
 161 000e 04FB1300 		mls	r0, r4, r3, r0
 162 0012 0130     		adds	r0, r0, #1
 163 0014 2880     		strh	r0, [r5]	@ movhi
 148:source\asw/reactionGame.c **** 
 149:source\asw/reactionGame.c ****     return RC_SUCCESS;
 150:source\asw/reactionGame.c **** }
 164              		.loc 1 150 0
 165 0016 0020     		movs	r0, #0
 166 0018 38BD     		pop	{r3, r4, r5, pc}
 167              		.cfi_endproc
 168              	.LFE112:
 169              		.size	REACTION_generateRandomNum, .-REACTION_generateRandomNum
 170 001a 00BF     		.section	.text.REACTION_startCounterForTime,"ax",%progbits
 171              		.align	2
 172              		.global	REACTION_startCounterForTime
 173              		.thumb
 174              		.thumb_func
 175              		.type	REACTION_startCounterForTime, %function
 176              	REACTION_startCounterForTime:
 177              	.LFB113:
 151:source\asw/reactionGame.c **** 
 152:source\asw/reactionGame.c **** /**
 153:source\asw/reactionGame.c ****  * @brief Starts a counter for a specified duration.
 154:source\asw/reactionGame.c ****  *
 155:source\asw/reactionGame.c ****  * This function starts a counter for a duration specified by the provided random number,
 156:source\asw/reactionGame.c ****  * which is multiplied by the global RGClockFrequency. The counter is configured to
 157:source\asw/reactionGame.c ****  * stop after reaching the specified count.
 158:source\asw/reactionGame.c ****  *
 159:source\asw/reactionGame.c ****  * @param randomNumber The random number used to calculate the counter duration.
 160:source\asw/reactionGame.c ****  * @return Returns an RC_t (Return Code) indicating the success or failure of the operation.
 161:source\asw/reactionGame.c ****  */
 162:source\asw/reactionGame.c **** RC_t REACTION_startCounterForTime(uint16_t time) {
 178              		.loc 1 162 0
 179              		.cfi_startproc
 180              		@ args = 0, pretend = 0, frame = 0
ARM GAS  C:\Users\zakis\AppData\Local\Temp\cclDrXun.s 			page 7


 181              		@ frame_needed = 0, uses_anonymous_args = 0
 182              	.LVL15:
 183 0000 10B5     		push	{r4, lr}
 184              		.cfi_def_cfa_offset 8
 185              		.cfi_offset 4, -8
 186              		.cfi_offset 14, -4
 163:source\asw/reactionGame.c ****     /**
 164:source\asw/reactionGame.c ****      * Multiply the required time by the global RGClockFrequency.
 165:source\asw/reactionGame.c ****      * This calculation determines the count needed for the specified duration.
 166:source\asw/reactionGame.c ****      */
 167:source\asw/reactionGame.c ****     time = time * countInOneSec;
 187              		.loc 1 167 0
 188 0002 00EB8000 		add	r0, r0, r0, lsl #2
 189              	.LVL16:
 190 0006 00EB8003 		add	r3, r0, r0, lsl #2
 191 000a C3EB0313 		rsb	r3, r3, r3, lsl #4
 192 000e 5801     		lsls	r0, r3, #5
 193 0010 84B2     		uxth	r4, r0
 194              	.LVL17:
 168:source\asw/reactionGame.c **** 
 169:source\asw/reactionGame.c ****     /* Start the counter, stop it, set the counter value, and start it again. */
 170:source\asw/reactionGame.c ****     Counter_Start();
 195              		.loc 1 170 0
 196 0012 FFF7FEFF 		bl	Counter_Start
 197              	.LVL18:
 171:source\asw/reactionGame.c ****     Counter_Stop();
 198              		.loc 1 171 0
 199 0016 FFF7FEFF 		bl	Counter_Stop
 200              	.LVL19:
 172:source\asw/reactionGame.c ****     Counter_WriteCounter(time);
 201              		.loc 1 172 0
 202 001a 2046     		mov	r0, r4
 203 001c FFF7FEFF 		bl	Counter_WriteCounter
 204              	.LVL20:
 173:source\asw/reactionGame.c ****     Counter_Start();
 205              		.loc 1 173 0
 206 0020 FFF7FEFF 		bl	Counter_Start
 207              	.LVL21:
 174:source\asw/reactionGame.c **** 
 175:source\asw/reactionGame.c ****     return RC_SUCCESS;
 176:source\asw/reactionGame.c **** }
 208              		.loc 1 176 0
 209 0024 0020     		movs	r0, #0
 210 0026 10BD     		pop	{r4, pc}
 211              		.cfi_endproc
 212              	.LFE113:
 213              		.size	REACTION_startCounterForTime, .-REACTION_startCounterForTime
 214              		.section	.text.REACTION_setDisplay,"ax",%progbits
 215              		.align	2
 216              		.global	REACTION_setDisplay
 217              		.thumb
 218              		.thumb_func
 219              		.type	REACTION_setDisplay, %function
 220              	REACTION_setDisplay:
 221              	.LFB115:
 177:source\asw/reactionGame.c **** 
 178:source\asw/reactionGame.c **** /**
ARM GAS  C:\Users\zakis\AppData\Local\Temp\cclDrXun.s 			page 8


 179:source\asw/reactionGame.c ****  * @brief Displays details of the game on UART.
 180:source\asw/reactionGame.c ****  *
 181:source\asw/reactionGame.c ****  * This function displays details such as correct presses, total time, and average time
 182:source\asw/reactionGame.c ****  * of the game on the UART output.
 183:source\asw/reactionGame.c ****  *
 184:source\asw/reactionGame.c ****  * @param game Pointer to the Game_t structure containing game details.
 185:source\asw/reactionGame.c ****  * @return Returns an RC_t (Return Code) indicating the success or failure of the operation.
 186:source\asw/reactionGame.c ****  */
 187:source\asw/reactionGame.c **** RC_t REACTION_displayDetails(const Game_t *game) {
 188:source\asw/reactionGame.c ****     /* Display correct presses on UART. */
 189:source\asw/reactionGame.c ****     UART_Logs_PutString("\nCorrect presses : ");
 190:source\asw/reactionGame.c ****     char_t buffer[4];
 191:source\asw/reactionGame.c ****     REACTION_convertToString(game->correctPresses, buffer);
 192:source\asw/reactionGame.c ****     UART_Logs_PutString(buffer);
 193:source\asw/reactionGame.c **** 
 194:source\asw/reactionGame.c ****     /* Display total time on UART. */
 195:source\asw/reactionGame.c ****     UART_Logs_PutString("\nTotal time : ");
 196:source\asw/reactionGame.c ****     REACTION_convertToString(game->totalTime, buffer);
 197:source\asw/reactionGame.c ****     UART_Logs_PutString(buffer);
 198:source\asw/reactionGame.c **** 
 199:source\asw/reactionGame.c **** 
 200:source\asw/reactionGame.c ****     /* Display average time on UART. */
 201:source\asw/reactionGame.c ****     UART_Logs_PutString("\nAverage time : ");
 202:source\asw/reactionGame.c ****     REACTION_convertToString(game->totalTime / game->correctPresses, buffer);
 203:source\asw/reactionGame.c ****     UART_Logs_PutString(buffer);
 204:source\asw/reactionGame.c **** 
 205:source\asw/reactionGame.c ****     return RC_SUCCESS;
 206:source\asw/reactionGame.c **** }
 207:source\asw/reactionGame.c **** 
 208:source\asw/reactionGame.c **** 
 209:source\asw/reactionGame.c **** 
 210:source\asw/reactionGame.c **** 
 211:source\asw/reactionGame.c **** 
 212:source\asw/reactionGame.c **** /**
 213:source\asw/reactionGame.c ****  * @brief Sets the SEVEN segment display with a specified number.
 214:source\asw/reactionGame.c ****  *
 215:source\asw/reactionGame.c ****  * This function sets the SEVEN segment display with the specified number for both SEVEN_0
 216:source\asw/reactionGame.c ****  * and SEVEN_1 segments.
 217:source\asw/reactionGame.c ****  *
 218:source\asw/reactionGame.c ****  * @param randomNumberDisplay The number to be displayed on the SEVEN segment display.
 219:source\asw/reactionGame.c ****  * @return Returns an RC_t (Return Code) indicating the success or failure of the operation.
 220:source\asw/reactionGame.c ****  */
 221:source\asw/reactionGame.c **** RC_t REACTION_setDisplay(uint16_t randomNumberDisplay) {
 222              		.loc 1 221 0
 223              		.cfi_startproc
 224              		@ args = 0, pretend = 0, frame = 0
 225              		@ frame_needed = 0, uses_anonymous_args = 0
 226              	.LVL22:
 227 0000 10B5     		push	{r4, lr}
 228              		.cfi_def_cfa_offset 8
 229              		.cfi_offset 4, -8
 230              		.cfi_offset 14, -4
 222:source\asw/reactionGame.c ****     /* Set the SEVEN segment display for both segments. */
 223:source\asw/reactionGame.c ****     SEVEN_Set(SEVEN_0, randomNumberDisplay);
 231              		.loc 1 223 0
 232 0002 C4B2     		uxtb	r4, r0
 233 0004 2146     		mov	r1, r4
ARM GAS  C:\Users\zakis\AppData\Local\Temp\cclDrXun.s 			page 9


 234 0006 0020     		movs	r0, #0
 235              	.LVL23:
 236 0008 FFF7FEFF 		bl	SEVEN_Set
 237              	.LVL24:
 224:source\asw/reactionGame.c ****     SEVEN_Set(SEVEN_1, randomNumberDisplay);
 238              		.loc 1 224 0
 239 000c 2146     		mov	r1, r4
 240 000e 0120     		movs	r0, #1
 241 0010 FFF7FEFF 		bl	SEVEN_Set
 242              	.LVL25:
 225:source\asw/reactionGame.c **** 
 226:source\asw/reactionGame.c ****     return RC_SUCCESS;
 227:source\asw/reactionGame.c **** }
 243              		.loc 1 227 0
 244 0014 0020     		movs	r0, #0
 245 0016 10BD     		pop	{r4, pc}
 246              		.cfi_endproc
 247              	.LFE115:
 248              		.size	REACTION_setDisplay, .-REACTION_setDisplay
 249              		.section	.text.REACTION_getReactionTimeMS,"ax",%progbits
 250              		.align	2
 251              		.global	REACTION_getReactionTimeMS
 252              		.thumb
 253              		.thumb_func
 254              		.type	REACTION_getReactionTimeMS, %function
 255              	REACTION_getReactionTimeMS:
 256              	.LFB116:
 228:source\asw/reactionGame.c **** 
 229:source\asw/reactionGame.c **** 
 230:source\asw/reactionGame.c **** /**
 231:source\asw/reactionGame.c ****  * @brief Retrieves the reaction time in milliseconds.
 232:source\asw/reactionGame.c ****  *
 233:source\asw/reactionGame.c ****  * This function stops the counter, calculates the reaction time based on the counter value,
 234:source\asw/reactionGame.c ****  * and returns the result through the provided pointer.
 235:source\asw/reactionGame.c ****  *
 236:source\asw/reactionGame.c ****  * @param reactionTime Pointer to the variable where the reaction time will be stored.
 237:source\asw/reactionGame.c ****  * @return Returns an RC_t (Return Code) indicating the success or failure of the operation.
 238:source\asw/reactionGame.c ****  */
 239:source\asw/reactionGame.c **** RC_t REACTION_getReactionTimeMS(uint16_t *reactionTime, Game_t game) {
 257              		.loc 1 239 0
 258              		.cfi_startproc
 259              		@ args = 0, pretend = 0, frame = 8
 260              		@ frame_needed = 0, uses_anonymous_args = 0
 261              	.LVL26:
 262 0000 70B5     		push	{r4, r5, r6, lr}
 263              		.cfi_def_cfa_offset 16
 264              		.cfi_offset 4, -16
 265              		.cfi_offset 5, -12
 266              		.cfi_offset 6, -8
 267              		.cfi_offset 14, -4
 268 0002 82B0     		sub	sp, sp, #8
 269              		.cfi_def_cfa_offset 24
 270 0004 0546     		mov	r5, r0
 271 0006 02AB     		add	r3, sp, #8
 272 0008 03E90600 		stmdb	r3, {r1, r2}
 240:source\asw/reactionGame.c ****     /* Stop the counter. */
 241:source\asw/reactionGame.c ****     Counter_Stop();
ARM GAS  C:\Users\zakis\AppData\Local\Temp\cclDrXun.s 			page 10


 273              		.loc 1 241 0
 274 000c FFF7FEFF 		bl	Counter_Stop
 275              	.LVL27:
 242:source\asw/reactionGame.c **** 
 243:source\asw/reactionGame.c ****     /** Calculate the reaction time based on the counter value.
 244:source\asw/reactionGame.c ****      *  (Difference between clock frequency and current value)/ period * 1000 = reaction time in ms
 245:source\asw/reactionGame.c ****      */
 246:source\asw/reactionGame.c ****     
 247:source\asw/reactionGame.c ****     *reactionTime = (countInOneSec*game.durationOfRoundSec - Counter_ReadCounter()) * 1000 / 
 276              		.loc 1 247 0
 277 0010 9DF80660 		ldrb	r6, [sp, #6]	@ zero_extendqisi2
 278 0014 42F6E064 		movw	r4, #12000
 279 0018 04FB06F4 		mul	r4, r4, r6
 280 001c FFF7FEFF 		bl	Counter_ReadCounter
 281              	.LVL28:
 282 0020 201A     		subs	r0, r4, r0
 283 0022 4FF47A73 		mov	r3, #1000
 284 0026 03FB00F0 		mul	r0, r3, r0
 285 002a 064B     		ldr	r3, .L17
 286 002c 83FB0023 		smull	r2, r3, r3, r0
 287 0030 C017     		asrs	r0, r0, #31
 288 0032 C0EB2320 		rsb	r0, r0, r3, asr #8
 289 0036 00FB06F0 		mul	r0, r0, r6
 290 003a 2880     		strh	r0, [r5]	@ movhi
 248:source\asw/reactionGame.c ****         countInOneSec*game.durationOfRoundSec;
 249:source\asw/reactionGame.c **** 
 250:source\asw/reactionGame.c ****     return RC_SUCCESS;
 251:source\asw/reactionGame.c **** }
 291              		.loc 1 251 0
 292 003c 0020     		movs	r0, #0
 293 003e 02B0     		add	sp, sp, #8
 294              		.cfi_def_cfa_offset 16
 295              		@ sp needed
 296 0040 70BD     		pop	{r4, r5, r6, pc}
 297              	.LVL29:
 298              	.L18:
 299 0042 00BF     		.align	2
 300              	.L17:
 301 0044 F1197605 		.word	91625969
 302              		.cfi_endproc
 303              	.LFE116:
 304              		.size	REACTION_getReactionTimeMS, .-REACTION_getReactionTimeMS
 305              		.section	.text.REACTION_displayFailureMessage,"ax",%progbits
 306              		.align	2
 307              		.global	REACTION_displayFailureMessage
 308              		.thumb
 309              		.thumb_func
 310              		.type	REACTION_displayFailureMessage, %function
 311              	REACTION_displayFailureMessage:
 312              	.LFB118:
 252:source\asw/reactionGame.c **** 
 253:source\asw/reactionGame.c **** 
 254:source\asw/reactionGame.c **** /**
 255:source\asw/reactionGame.c ****  * @brief Displays a success message on UART with reaction time information.
 256:source\asw/reactionGame.c ****  *
 257:source\asw/reactionGame.c ****  * This function displays a success message on UART indicating that the correct button
 258:source\asw/reactionGame.c ****  * was pressed. It also displays the reaction time in milliseconds.
ARM GAS  C:\Users\zakis\AppData\Local\Temp\cclDrXun.s 			page 11


 259:source\asw/reactionGame.c ****  *
 260:source\asw/reactionGame.c ****  * @param reactionTime The reaction time in milliseconds.
 261:source\asw/reactionGame.c ****  * @return Returns an RC_t (Return Code) indicating the success or failure of the operation.
 262:source\asw/reactionGame.c ****  */
 263:source\asw/reactionGame.c **** RC_t REACTION_displaySuccessMessage(uint16_t reactionTime) {
 264:source\asw/reactionGame.c ****     /* Display a success message on UART. */
 265:source\asw/reactionGame.c ****     UART_Logs_PutString("Great! Correct Button Pressed\n");
 266:source\asw/reactionGame.c ****     UART_Logs_PutString("Reaction Time in ms: ");
 267:source\asw/reactionGame.c **** 
 268:source\asw/reactionGame.c ****     /* Convert reaction time to string and display it on UART. */
 269:source\asw/reactionGame.c ****     char_t myBuffer[3];
 270:source\asw/reactionGame.c ****     REACTION_convertToString(reactionTime, myBuffer);
 271:source\asw/reactionGame.c ****     UART_Logs_PutString(myBuffer);
 272:source\asw/reactionGame.c **** 
 273:source\asw/reactionGame.c ****     /* Display a message prompting to continue. */
 274:source\asw/reactionGame.c ****     UART_Logs_PutString("\nPress any button to continue\n\n");
 275:source\asw/reactionGame.c **** 
 276:source\asw/reactionGame.c ****     return RC_SUCCESS;
 277:source\asw/reactionGame.c **** }
 278:source\asw/reactionGame.c **** 
 279:source\asw/reactionGame.c **** 
 280:source\asw/reactionGame.c **** /**
 281:source\asw/reactionGame.c ****  * @brief Displays a failure message on UART.
 282:source\asw/reactionGame.c ****  *
 283:source\asw/reactionGame.c ****  * This function displays a failure message on UART indicating that an incorrect button
 284:source\asw/reactionGame.c ****  * was pressed. It prompts the user to press any button to continue.
 285:source\asw/reactionGame.c ****  *
 286:source\asw/reactionGame.c ****  * @return Returns an RC_t (Return Code) indicating the success or failure of the operation.
 287:source\asw/reactionGame.c ****  */
 288:source\asw/reactionGame.c **** RC_t REACTION_displayFailureMessage() {
 313              		.loc 1 288 0
 314              		.cfi_startproc
 315              		@ args = 0, pretend = 0, frame = 0
 316              		@ frame_needed = 0, uses_anonymous_args = 0
 317 0000 08B5     		push	{r3, lr}
 318              		.cfi_def_cfa_offset 8
 319              		.cfi_offset 3, -8
 320              		.cfi_offset 14, -4
 289:source\asw/reactionGame.c ****     /* Display a failure message on UART. */
 290:source\asw/reactionGame.c ****     UART_Logs_PutString("Incorrect Button Pressed\n");
 321              		.loc 1 290 0
 322 0002 0448     		ldr	r0, .L21
 323 0004 FFF7FEFF 		bl	UART_Logs_PutString
 324              	.LVL30:
 291:source\asw/reactionGame.c ****     /* Display a message prompting to continue. */
 292:source\asw/reactionGame.c ****     UART_Logs_PutString("Press any button to continue\n\n");
 325              		.loc 1 292 0
 326 0008 0348     		ldr	r0, .L21+4
 327 000a FFF7FEFF 		bl	UART_Logs_PutString
 328              	.LVL31:
 293:source\asw/reactionGame.c **** 
 294:source\asw/reactionGame.c ****     return RC_SUCCESS;
 295:source\asw/reactionGame.c **** }
 329              		.loc 1 295 0
 330 000e 0020     		movs	r0, #0
 331 0010 08BD     		pop	{r3, pc}
 332              	.L22:
ARM GAS  C:\Users\zakis\AppData\Local\Temp\cclDrXun.s 			page 12


 333 0012 00BF     		.align	2
 334              	.L21:
 335 0014 A0000000 		.word	.LC4
 336 0018 BC000000 		.word	.LC5
 337              		.cfi_endproc
 338              	.LFE118:
 339              		.size	REACTION_displayFailureMessage, .-REACTION_displayFailureMessage
 340              		.section	.text.REACTION_displayTimeoutMessage,"ax",%progbits
 341              		.align	2
 342              		.global	REACTION_displayTimeoutMessage
 343              		.thumb
 344              		.thumb_func
 345              		.type	REACTION_displayTimeoutMessage, %function
 346              	REACTION_displayTimeoutMessage:
 347              	.LFB119:
 296:source\asw/reactionGame.c **** 
 297:source\asw/reactionGame.c **** 
 298:source\asw/reactionGame.c **** /**
 299:source\asw/reactionGame.c ****  * @brief Displays a timeout message on UART.
 300:source\asw/reactionGame.c ****  *
 301:source\asw/reactionGame.c ****  * This function displays a message on UART indicating that the time ran out.
 302:source\asw/reactionGame.c ****  * It prompts the user to press any button to continue.
 303:source\asw/reactionGame.c ****  *
 304:source\asw/reactionGame.c ****  * @return Returns an RC_t (Return Code) indicating the success or failure of the operation.
 305:source\asw/reactionGame.c ****  */
 306:source\asw/reactionGame.c **** RC_t REACTION_displayTimeoutMessage() {
 348              		.loc 1 306 0
 349              		.cfi_startproc
 350              		@ args = 0, pretend = 0, frame = 0
 351              		@ frame_needed = 0, uses_anonymous_args = 0
 352 0000 08B5     		push	{r3, lr}
 353              		.cfi_def_cfa_offset 8
 354              		.cfi_offset 3, -8
 355              		.cfi_offset 14, -4
 307:source\asw/reactionGame.c ****     /* Display a timeout message on UART. */
 308:source\asw/reactionGame.c ****     UART_Logs_PutString("Time ran out\n");
 356              		.loc 1 308 0
 357 0002 0448     		ldr	r0, .L25
 358 0004 FFF7FEFF 		bl	UART_Logs_PutString
 359              	.LVL32:
 309:source\asw/reactionGame.c ****     /* Display a message prompting to continue. */
 310:source\asw/reactionGame.c ****     UART_Logs_PutString("Press any button to continue\n\n");
 360              		.loc 1 310 0
 361 0008 0348     		ldr	r0, .L25+4
 362 000a FFF7FEFF 		bl	UART_Logs_PutString
 363              	.LVL33:
 311:source\asw/reactionGame.c **** 
 312:source\asw/reactionGame.c ****     return RC_SUCCESS;
 313:source\asw/reactionGame.c **** }
 364              		.loc 1 313 0
 365 000e 0020     		movs	r0, #0
 366 0010 08BD     		pop	{r3, pc}
 367              	.L26:
 368 0012 00BF     		.align	2
 369              	.L25:
 370 0014 DC000000 		.word	.LC6
 371 0018 BC000000 		.word	.LC5
ARM GAS  C:\Users\zakis\AppData\Local\Temp\cclDrXun.s 			page 13


 372              		.cfi_endproc
 373              	.LFE119:
 374              		.size	REACTION_displayTimeoutMessage, .-REACTION_displayTimeoutMessage
 375              		.section	.text.REACTION_reverseString,"ax",%progbits
 376              		.align	2
 377              		.global	REACTION_reverseString
 378              		.thumb
 379              		.thumb_func
 380              		.type	REACTION_reverseString, %function
 381              	REACTION_reverseString:
 382              	.LFB121:
 314:source\asw/reactionGame.c **** 
 315:source\asw/reactionGame.c **** /**
 316:source\asw/reactionGame.c ****  * @brief Converts a number to a string.
 317:source\asw/reactionGame.c ****  *
 318:source\asw/reactionGame.c ****  * This function converts the given number to a string and stores it in the provided buffer.
 319:source\asw/reactionGame.c ****  *
 320:source\asw/reactionGame.c ****  * @param number The number to be converted to a string.
 321:source\asw/reactionGame.c ****  * @param buffer Pointer to the buffer where the string representation will be stored.
 322:source\asw/reactionGame.c ****  * @return Returns an RC_t (Return Code) indicating the success or failure of the operation.
 323:source\asw/reactionGame.c ****  */
 324:source\asw/reactionGame.c **** RC_t REACTION_convertToString(uint16_t number, char_t *buffer) {
 325:source\asw/reactionGame.c ****     if (number == 0){
 326:source\asw/reactionGame.c ****         buffer[0] = '0';
 327:source\asw/reactionGame.c ****         buffer[1] = '\0';
 328:source\asw/reactionGame.c ****         return RC_SUCCESS;
 329:source\asw/reactionGame.c ****     }
 330:source\asw/reactionGame.c ****     
 331:source\asw/reactionGame.c ****     int i = 0;
 332:source\asw/reactionGame.c **** 
 333:source\asw/reactionGame.c ****     /* Convert the number to a string in reverse order. */
 334:source\asw/reactionGame.c ****     while (number != 0) {
 335:source\asw/reactionGame.c ****         int digit = number % 10;
 336:source\asw/reactionGame.c ****         buffer[i++] = digit + '0';
 337:source\asw/reactionGame.c ****         number = number / 10;
 338:source\asw/reactionGame.c ****     }
 339:source\asw/reactionGame.c **** 
 340:source\asw/reactionGame.c ****     /* Add null terminator to the end of the string. */
 341:source\asw/reactionGame.c ****     buffer[i] = '\0';
 342:source\asw/reactionGame.c **** 
 343:source\asw/reactionGame.c ****     /* Reverse the string to get the correct order. */
 344:source\asw/reactionGame.c ****     REACTION_reverseString(buffer, i);
 345:source\asw/reactionGame.c **** 
 346:source\asw/reactionGame.c ****     return RC_SUCCESS;
 347:source\asw/reactionGame.c **** }
 348:source\asw/reactionGame.c **** 
 349:source\asw/reactionGame.c **** /**
 350:source\asw/reactionGame.c ****  * @brief Reverses a string in-place.
 351:source\asw/reactionGame.c ****  *
 352:source\asw/reactionGame.c ****  * This function reverses the order of characters in the given string in-place.
 353:source\asw/reactionGame.c ****  *
 354:source\asw/reactionGame.c ****  * @param str Pointer to the string to be reversed.
 355:source\asw/reactionGame.c ****  * @param length The length of the string.
 356:source\asw/reactionGame.c ****  * @return Returns an RC_t (Return Code) indicating the success or failure of the operation.
 357:source\asw/reactionGame.c ****  */
 358:source\asw/reactionGame.c **** RC_t REACTION_reverseString(char_t *str, uint8_t length) {
 383              		.loc 1 358 0
ARM GAS  C:\Users\zakis\AppData\Local\Temp\cclDrXun.s 			page 14


 384              		.cfi_startproc
 385              		@ args = 0, pretend = 0, frame = 0
 386              		@ frame_needed = 0, uses_anonymous_args = 0
 387              		@ link register save eliminated.
 388              	.LVL34:
 389 0000 10B4     		push	{r4}
 390              		.cfi_def_cfa_offset 4
 391              		.cfi_offset 4, -4
 392              	.LVL35:
 359:source\asw/reactionGame.c ****     int start = 0;
 360:source\asw/reactionGame.c ****     int end = length - 1;
 393              		.loc 1 360 0
 394 0002 0139     		subs	r1, r1, #1
 395              	.LVL36:
 359:source\asw/reactionGame.c ****     int start = 0;
 396              		.loc 1 359 0
 397 0004 0023     		movs	r3, #0
 361:source\asw/reactionGame.c **** 
 362:source\asw/reactionGame.c ****     /* Swap characters from start to end to reverse the string. */
 363:source\asw/reactionGame.c ****     while (start < end) {
 398              		.loc 1 363 0
 399 0006 05E0     		b	.L28
 400              	.LVL37:
 401              	.L29:
 402              	.LBB2:
 364:source\asw/reactionGame.c ****         char_t temp = str[start];
 403              		.loc 1 364 0
 404 0008 C25C     		ldrb	r2, [r0, r3]	@ zero_extendqisi2
 405              	.LVL38:
 365:source\asw/reactionGame.c ****         str[start] = str[end];
 406              		.loc 1 365 0
 407 000a 445C     		ldrb	r4, [r0, r1]	@ zero_extendqisi2
 408 000c C454     		strb	r4, [r0, r3]
 366:source\asw/reactionGame.c ****         str[end] = temp;
 409              		.loc 1 366 0
 410 000e 4254     		strb	r2, [r0, r1]
 367:source\asw/reactionGame.c **** 
 368:source\asw/reactionGame.c ****         start++;
 411              		.loc 1 368 0
 412 0010 0133     		adds	r3, r3, #1
 413              	.LVL39:
 369:source\asw/reactionGame.c ****         end--;
 414              		.loc 1 369 0
 415 0012 0139     		subs	r1, r1, #1
 416              	.LVL40:
 417              	.L28:
 418              	.LBE2:
 363:source\asw/reactionGame.c ****         char_t temp = str[start];
 419              		.loc 1 363 0
 420 0014 8B42     		cmp	r3, r1
 421 0016 F7DB     		blt	.L29
 370:source\asw/reactionGame.c ****     }
 371:source\asw/reactionGame.c **** 
 372:source\asw/reactionGame.c ****     return RC_SUCCESS;
 373:source\asw/reactionGame.c **** }
 422              		.loc 1 373 0
 423 0018 0020     		movs	r0, #0
ARM GAS  C:\Users\zakis\AppData\Local\Temp\cclDrXun.s 			page 15


 424              	.LVL41:
 425 001a 10BC     		pop	{r4}
 426              		.cfi_restore 4
 427              		.cfi_def_cfa_offset 0
 428 001c 7047     		bx	lr
 429              		.cfi_endproc
 430              	.LFE121:
 431              		.size	REACTION_reverseString, .-REACTION_reverseString
 432 001e 00BF     		.section	.text.REACTION_convertToString,"ax",%progbits
 433              		.align	2
 434              		.global	REACTION_convertToString
 435              		.thumb
 436              		.thumb_func
 437              		.type	REACTION_convertToString, %function
 438              	REACTION_convertToString:
 439              	.LFB120:
 324:source\asw/reactionGame.c ****     if (number == 0){
 440              		.loc 1 324 0
 441              		.cfi_startproc
 442              		@ args = 0, pretend = 0, frame = 0
 443              		@ frame_needed = 0, uses_anonymous_args = 0
 444              	.LVL42:
 445 0000 38B5     		push	{r3, r4, r5, lr}
 446              		.cfi_def_cfa_offset 16
 447              		.cfi_offset 3, -16
 448              		.cfi_offset 4, -12
 449              		.cfi_offset 5, -8
 450              		.cfi_offset 14, -4
 451 0002 0D46     		mov	r5, r1
 325:source\asw/reactionGame.c ****         buffer[0] = '0';
 452              		.loc 1 325 0
 453 0004 90B9     		cbnz	r0, .L35
 326:source\asw/reactionGame.c ****         buffer[1] = '\0';
 454              		.loc 1 326 0
 455 0006 3023     		movs	r3, #48
 456 0008 0B70     		strb	r3, [r1]
 327:source\asw/reactionGame.c ****         return RC_SUCCESS;
 457              		.loc 1 327 0
 458 000a 0023     		movs	r3, #0
 459 000c 4B70     		strb	r3, [r1, #1]
 328:source\asw/reactionGame.c ****     }
 460              		.loc 1 328 0
 461 000e 16E0     		b	.L33
 462              	.LVL43:
 463              	.L34:
 464              	.LBB3:
 335:source\asw/reactionGame.c ****         buffer[i++] = digit + '0';
 465              		.loc 1 335 0
 466 0010 0C4A     		ldr	r2, .L37
 467 0012 A2FB0302 		umull	r0, r2, r2, r3
 468 0016 D208     		lsrs	r2, r2, #3
 469 0018 02EB8204 		add	r4, r2, r2, lsl #2
 470 001c 6000     		lsls	r0, r4, #1
 471 001e 1B1A     		subs	r3, r3, r0
 472              	.LVL44:
 473 0020 9BB2     		uxth	r3, r3
 474              	.LVL45:
ARM GAS  C:\Users\zakis\AppData\Local\Temp\cclDrXun.s 			page 16


 336:source\asw/reactionGame.c ****         number = number / 10;
 475              		.loc 1 336 0
 476 0022 3033     		adds	r3, r3, #48
 477              	.LVL46:
 478 0024 6B54     		strb	r3, [r5, r1]
 337:source\asw/reactionGame.c ****     }
 479              		.loc 1 337 0
 480 0026 93B2     		uxth	r3, r2
 481              	.LVL47:
 336:source\asw/reactionGame.c ****         number = number / 10;
 482              		.loc 1 336 0
 483 0028 0131     		adds	r1, r1, #1
 484              	.LVL48:
 485 002a 01E0     		b	.L32
 486              	.LVL49:
 487              	.L35:
 488 002c 0346     		mov	r3, r0
 489              	.LBE3:
 490 002e 0021     		movs	r1, #0
 491              	.LVL50:
 492              	.L32:
 334:source\asw/reactionGame.c ****         int digit = number % 10;
 493              		.loc 1 334 0
 494 0030 002B     		cmp	r3, #0
 495 0032 EDD1     		bne	.L34
 341:source\asw/reactionGame.c **** 
 496              		.loc 1 341 0
 497 0034 6B54     		strb	r3, [r5, r1]
 344:source\asw/reactionGame.c **** 
 498              		.loc 1 344 0
 499 0036 C9B2     		uxtb	r1, r1
 500              	.LVL51:
 501 0038 2846     		mov	r0, r5
 502 003a FFF7FEFF 		bl	REACTION_reverseString
 503              	.LVL52:
 504              	.L33:
 347:source\asw/reactionGame.c **** 
 505              		.loc 1 347 0
 506 003e 0020     		movs	r0, #0
 507 0040 38BD     		pop	{r3, r4, r5, pc}
 508              	.LVL53:
 509              	.L38:
 510 0042 00BF     		.align	2
 511              	.L37:
 512 0044 CDCCCCCC 		.word	-858993459
 513              		.cfi_endproc
 514              	.LFE120:
 515              		.size	REACTION_convertToString, .-REACTION_convertToString
 516              		.section	.text.REACTION_displayDetails,"ax",%progbits
 517              		.align	2
 518              		.global	REACTION_displayDetails
 519              		.thumb
 520              		.thumb_func
 521              		.type	REACTION_displayDetails, %function
 522              	REACTION_displayDetails:
 523              	.LFB114:
 187:source\asw/reactionGame.c ****     /* Display correct presses on UART. */
ARM GAS  C:\Users\zakis\AppData\Local\Temp\cclDrXun.s 			page 17


 524              		.loc 1 187 0
 525              		.cfi_startproc
 526              		@ args = 0, pretend = 0, frame = 8
 527              		@ frame_needed = 0, uses_anonymous_args = 0
 528              	.LVL54:
 529 0000 10B5     		push	{r4, lr}
 530              		.cfi_def_cfa_offset 8
 531              		.cfi_offset 4, -8
 532              		.cfi_offset 14, -4
 533 0002 82B0     		sub	sp, sp, #8
 534              		.cfi_def_cfa_offset 16
 535 0004 0446     		mov	r4, r0
 189:source\asw/reactionGame.c ****     char_t buffer[4];
 536              		.loc 1 189 0
 537 0006 1248     		ldr	r0, .L41
 538              	.LVL55:
 539 0008 FFF7FEFF 		bl	UART_Logs_PutString
 540              	.LVL56:
 191:source\asw/reactionGame.c ****     UART_Logs_PutString(buffer);
 541              		.loc 1 191 0
 542 000c 01A9     		add	r1, sp, #4
 543 000e 2079     		ldrb	r0, [r4, #4]	@ zero_extendqisi2
 544 0010 FFF7FEFF 		bl	REACTION_convertToString
 545              	.LVL57:
 192:source\asw/reactionGame.c **** 
 546              		.loc 1 192 0
 547 0014 01A8     		add	r0, sp, #4
 548 0016 FFF7FEFF 		bl	UART_Logs_PutString
 549              	.LVL58:
 195:source\asw/reactionGame.c ****     REACTION_convertToString(game->totalTime, buffer);
 550              		.loc 1 195 0
 551 001a 0E48     		ldr	r0, .L41+4
 552 001c FFF7FEFF 		bl	UART_Logs_PutString
 553              	.LVL59:
 196:source\asw/reactionGame.c ****     UART_Logs_PutString(buffer);
 554              		.loc 1 196 0
 555 0020 01A9     		add	r1, sp, #4
 556 0022 6088     		ldrh	r0, [r4, #2]
 557 0024 FFF7FEFF 		bl	REACTION_convertToString
 558              	.LVL60:
 197:source\asw/reactionGame.c **** 
 559              		.loc 1 197 0
 560 0028 01A8     		add	r0, sp, #4
 561 002a FFF7FEFF 		bl	UART_Logs_PutString
 562              	.LVL61:
 201:source\asw/reactionGame.c ****     REACTION_convertToString(game->totalTime / game->correctPresses, buffer);
 563              		.loc 1 201 0
 564 002e 0A48     		ldr	r0, .L41+8
 565 0030 FFF7FEFF 		bl	UART_Logs_PutString
 566              	.LVL62:
 202:source\asw/reactionGame.c ****     UART_Logs_PutString(buffer);
 567              		.loc 1 202 0
 568 0034 6088     		ldrh	r0, [r4, #2]
 569 0036 2379     		ldrb	r3, [r4, #4]	@ zero_extendqisi2
 570 0038 01A9     		add	r1, sp, #4
 571 003a 90FBF3F0 		sdiv	r0, r0, r3
 572 003e FFF7FEFF 		bl	REACTION_convertToString
ARM GAS  C:\Users\zakis\AppData\Local\Temp\cclDrXun.s 			page 18


 573              	.LVL63:
 203:source\asw/reactionGame.c **** 
 574              		.loc 1 203 0
 575 0042 01A8     		add	r0, sp, #4
 576 0044 FFF7FEFF 		bl	UART_Logs_PutString
 577              	.LVL64:
 206:source\asw/reactionGame.c **** 
 578              		.loc 1 206 0
 579 0048 0020     		movs	r0, #0
 580 004a 02B0     		add	sp, sp, #8
 581              		.cfi_def_cfa_offset 8
 582              		@ sp needed
 583 004c 10BD     		pop	{r4, pc}
 584              	.LVL65:
 585              	.L42:
 586 004e 00BF     		.align	2
 587              	.L41:
 588 0050 EC000000 		.word	.LC7
 589 0054 00010000 		.word	.LC8
 590 0058 10010000 		.word	.LC9
 591              		.cfi_endproc
 592              	.LFE114:
 593              		.size	REACTION_displayDetails, .-REACTION_displayDetails
 594              		.section	.text.REACTION_displaySuccessMessage,"ax",%progbits
 595              		.align	2
 596              		.global	REACTION_displaySuccessMessage
 597              		.thumb
 598              		.thumb_func
 599              		.type	REACTION_displaySuccessMessage, %function
 600              	REACTION_displaySuccessMessage:
 601              	.LFB117:
 263:source\asw/reactionGame.c ****     /* Display a success message on UART. */
 602              		.loc 1 263 0
 603              		.cfi_startproc
 604              		@ args = 0, pretend = 0, frame = 8
 605              		@ frame_needed = 0, uses_anonymous_args = 0
 606              	.LVL66:
 607 0000 10B5     		push	{r4, lr}
 608              		.cfi_def_cfa_offset 8
 609              		.cfi_offset 4, -8
 610              		.cfi_offset 14, -4
 611 0002 82B0     		sub	sp, sp, #8
 612              		.cfi_def_cfa_offset 16
 613 0004 0446     		mov	r4, r0
 265:source\asw/reactionGame.c ****     UART_Logs_PutString("Reaction Time in ms: ");
 614              		.loc 1 265 0
 615 0006 0948     		ldr	r0, .L45
 616              	.LVL67:
 617 0008 FFF7FEFF 		bl	UART_Logs_PutString
 618              	.LVL68:
 266:source\asw/reactionGame.c **** 
 619              		.loc 1 266 0
 620 000c 0848     		ldr	r0, .L45+4
 621 000e FFF7FEFF 		bl	UART_Logs_PutString
 622              	.LVL69:
 270:source\asw/reactionGame.c ****     UART_Logs_PutString(myBuffer);
 623              		.loc 1 270 0
ARM GAS  C:\Users\zakis\AppData\Local\Temp\cclDrXun.s 			page 19


 624 0012 01A9     		add	r1, sp, #4
 625 0014 2046     		mov	r0, r4
 626 0016 FFF7FEFF 		bl	REACTION_convertToString
 627              	.LVL70:
 271:source\asw/reactionGame.c **** 
 628              		.loc 1 271 0
 629 001a 01A8     		add	r0, sp, #4
 630 001c FFF7FEFF 		bl	UART_Logs_PutString
 631              	.LVL71:
 274:source\asw/reactionGame.c **** 
 632              		.loc 1 274 0
 633 0020 0448     		ldr	r0, .L45+8
 634 0022 FFF7FEFF 		bl	UART_Logs_PutString
 635              	.LVL72:
 277:source\asw/reactionGame.c **** 
 636              		.loc 1 277 0
 637 0026 0020     		movs	r0, #0
 638 0028 02B0     		add	sp, sp, #8
 639              		.cfi_def_cfa_offset 8
 640              		@ sp needed
 641 002a 10BD     		pop	{r4, pc}
 642              	.L46:
 643              		.align	2
 644              	.L45:
 645 002c 24010000 		.word	.LC10
 646 0030 44010000 		.word	.LC11
 647 0034 5C010000 		.word	.LC12
 648              		.cfi_endproc
 649              	.LFE117:
 650              		.size	REACTION_displaySuccessMessage, .-REACTION_displaySuccessMessage
 651              		.section	.text.REACTION_printRoundNumber,"ax",%progbits
 652              		.align	2
 653              		.global	REACTION_printRoundNumber
 654              		.thumb
 655              		.thumb_func
 656              		.type	REACTION_printRoundNumber, %function
 657              	REACTION_printRoundNumber:
 658              	.LFB122:
 374:source\asw/reactionGame.c **** 
 375:source\asw/reactionGame.c **** 
 376:source\asw/reactionGame.c **** /**
 377:source\asw/reactionGame.c ****  * @brief Prints the start of a new round on UART.
 378:source\asw/reactionGame.c ****  *
 379:source\asw/reactionGame.c ****  * This function displays a message on UART indicating the start of a new round,
 380:source\asw/reactionGame.c ****  * along with the round number.
 381:source\asw/reactionGame.c ****  *
 382:source\asw/reactionGame.c ****  * @param roundNumber The number of the current round.
 383:source\asw/reactionGame.c ****  * @return Returns an RC_t (Return Code) indicating the success or failure of the operation.
 384:source\asw/reactionGame.c ****  */
 385:source\asw/reactionGame.c **** RC_t REACTION_printRoundNumber(uint8_t roundNumber) {
 659              		.loc 1 385 0
 660              		.cfi_startproc
 661              		@ args = 0, pretend = 0, frame = 8
 662              		@ frame_needed = 0, uses_anonymous_args = 0
 663              	.LVL73:
 664 0000 10B5     		push	{r4, lr}
 665              		.cfi_def_cfa_offset 8
ARM GAS  C:\Users\zakis\AppData\Local\Temp\cclDrXun.s 			page 20


 666              		.cfi_offset 4, -8
 667              		.cfi_offset 14, -4
 668 0002 82B0     		sub	sp, sp, #8
 669              		.cfi_def_cfa_offset 16
 670 0004 0446     		mov	r4, r0
 386:source\asw/reactionGame.c ****     /* Display a message indicating the start of a new round. */
 387:source\asw/reactionGame.c ****     UART_Logs_PutString("\nRound ");
 671              		.loc 1 387 0
 672 0006 0848     		ldr	r0, .L49
 673              	.LVL74:
 674 0008 FFF7FEFF 		bl	UART_Logs_PutString
 675              	.LVL75:
 388:source\asw/reactionGame.c **** 
 389:source\asw/reactionGame.c ****     /* Convert the round number to a string and display it on UART. */
 390:source\asw/reactionGame.c ****     char_t myBuffer[2];
 391:source\asw/reactionGame.c ****     REACTION_convertToString(roundNumber, myBuffer);
 676              		.loc 1 391 0
 677 000c 01A9     		add	r1, sp, #4
 678 000e 2046     		mov	r0, r4
 679 0010 FFF7FEFF 		bl	REACTION_convertToString
 680              	.LVL76:
 392:source\asw/reactionGame.c ****     UART_Logs_PutString(myBuffer);
 681              		.loc 1 392 0
 682 0014 01A8     		add	r0, sp, #4
 683 0016 FFF7FEFF 		bl	UART_Logs_PutString
 684              	.LVL77:
 393:source\asw/reactionGame.c **** 
 394:source\asw/reactionGame.c ****     /* Display a message indicating that the round has started. */
 395:source\asw/reactionGame.c ****     UART_Logs_PutString(" started!\n");
 685              		.loc 1 395 0
 686 001a 0448     		ldr	r0, .L49+4
 687 001c FFF7FEFF 		bl	UART_Logs_PutString
 688              	.LVL78:
 396:source\asw/reactionGame.c **** 
 397:source\asw/reactionGame.c ****     return RC_SUCCESS;
 398:source\asw/reactionGame.c **** }
 689              		.loc 1 398 0
 690 0020 0020     		movs	r0, #0
 691 0022 02B0     		add	sp, sp, #8
 692              		.cfi_def_cfa_offset 8
 693              		@ sp needed
 694 0024 10BD     		pop	{r4, pc}
 695              	.L50:
 696 0026 00BF     		.align	2
 697              	.L49:
 698 0028 7C010000 		.word	.LC13
 699 002c 84010000 		.word	.LC14
 700              		.cfi_endproc
 701              	.LFE122:
 702              		.size	REACTION_printRoundNumber, .-REACTION_printRoundNumber
 703              		.section	.text.REACTION_stopCounter,"ax",%progbits
 704              		.align	2
 705              		.global	REACTION_stopCounter
 706              		.thumb
 707              		.thumb_func
 708              		.type	REACTION_stopCounter, %function
 709              	REACTION_stopCounter:
ARM GAS  C:\Users\zakis\AppData\Local\Temp\cclDrXun.s 			page 21


 710              	.LFB123:
 399:source\asw/reactionGame.c **** 
 400:source\asw/reactionGame.c **** /**
 401:source\asw/reactionGame.c ****  * @brief Stops the counter.
 402:source\asw/reactionGame.c ****  *
 403:source\asw/reactionGame.c ****  * This function stops the counter used for measuring time.
 404:source\asw/reactionGame.c ****  *
 405:source\asw/reactionGame.c ****  * @return Returns an RC_t (Return Code) indicating the success or failure of the operation.
 406:source\asw/reactionGame.c ****  */
 407:source\asw/reactionGame.c **** RC_t REACTION_stopCounter() {
 711              		.loc 1 407 0
 712              		.cfi_startproc
 713              		@ args = 0, pretend = 0, frame = 0
 714              		@ frame_needed = 0, uses_anonymous_args = 0
 715 0000 08B5     		push	{r3, lr}
 716              		.cfi_def_cfa_offset 8
 717              		.cfi_offset 3, -8
 718              		.cfi_offset 14, -4
 408:source\asw/reactionGame.c ****     Counter_Stop();
 719              		.loc 1 408 0
 720 0002 FFF7FEFF 		bl	Counter_Stop
 721              	.LVL79:
 409:source\asw/reactionGame.c ****     return RC_SUCCESS;
 410:source\asw/reactionGame.c **** }
 722              		.loc 1 410 0
 723 0006 0020     		movs	r0, #0
 724 0008 08BD     		pop	{r3, pc}
 725              		.cfi_endproc
 726              	.LFE123:
 727              		.size	REACTION_stopCounter, .-REACTION_stopCounter
 728 000a 00BF     		.section	.text.REACTION_resetDisplay,"ax",%progbits
 729              		.align	2
 730              		.global	REACTION_resetDisplay
 731              		.thumb
 732              		.thumb_func
 733              		.type	REACTION_resetDisplay, %function
 734              	REACTION_resetDisplay:
 735              	.LFB124:
 411:source\asw/reactionGame.c **** 
 412:source\asw/reactionGame.c **** /**
 413:source\asw/reactionGame.c ****  * @brief Resets the SEVEN segment display.
 414:source\asw/reactionGame.c ****  *
 415:source\asw/reactionGame.c ****  * This function initializes the SEVEN segment display to its default state.
 416:source\asw/reactionGame.c ****  *
 417:source\asw/reactionGame.c ****  * @return Returns an RC_t (Return Code) indicating the success or failure of the operation.
 418:source\asw/reactionGame.c ****  */
 419:source\asw/reactionGame.c **** RC_t REACTION_resetDisplay() {
 736              		.loc 1 419 0
 737              		.cfi_startproc
 738              		@ args = 0, pretend = 0, frame = 0
 739              		@ frame_needed = 0, uses_anonymous_args = 0
 740 0000 08B5     		push	{r3, lr}
 741              		.cfi_def_cfa_offset 8
 742              		.cfi_offset 3, -8
 743              		.cfi_offset 14, -4
 420:source\asw/reactionGame.c ****     SEVEN_Init();
 744              		.loc 1 420 0
ARM GAS  C:\Users\zakis\AppData\Local\Temp\cclDrXun.s 			page 22


 745 0002 FFF7FEFF 		bl	SEVEN_Init
 746              	.LVL80:
 421:source\asw/reactionGame.c ****     return RC_SUCCESS;
 422:source\asw/reactionGame.c **** }
 747              		.loc 1 422 0
 748 0006 0020     		movs	r0, #0
 749 0008 08BD     		pop	{r3, pc}
 750              		.cfi_endproc
 751              	.LFE124:
 752              		.size	REACTION_resetDisplay, .-REACTION_resetDisplay
 753 000a 00BF     		.section	.text.REACTION_correctButtonPressed,"ax",%progbits
 754              		.align	2
 755              		.global	REACTION_correctButtonPressed
 756              		.thumb
 757              		.thumb_func
 758              		.type	REACTION_correctButtonPressed, %function
 759              	REACTION_correctButtonPressed:
 760              	.LFB125:
 423:source\asw/reactionGame.c **** 
 424:source\asw/reactionGame.c **** /**
 425:source\asw/reactionGame.c ****  * @brief Checks if the correct button is pressed based on the SEVEN segment display value.
 426:source\asw/reactionGame.c ****  *
 427:source\asw/reactionGame.c ****  * This function retrieves the current value from the SEVEN segment display and checks
 428:source\asw/reactionGame.c ****  * if the corresponding correct button is pressed.
 429:source\asw/reactionGame.c ****  *
 430:source\asw/reactionGame.c ****  * @return Returns TRUE if the correct button is pressed, FALSE otherwise.
 431:source\asw/reactionGame.c ****  */
 432:source\asw/reactionGame.c **** boolean_t REACTION_correctButtonPressed() {
 761              		.loc 1 432 0
 762              		.cfi_startproc
 763              		@ args = 0, pretend = 0, frame = 8
 764              		@ frame_needed = 0, uses_anonymous_args = 0
 765 0000 00B5     		push	{lr}
 766              		.cfi_def_cfa_offset 4
 767              		.cfi_offset 14, -4
 768 0002 83B0     		sub	sp, sp, #12
 769              		.cfi_def_cfa_offset 16
 433:source\asw/reactionGame.c ****     /* Retrieve the current value from the SEVEN segment display. */
 434:source\asw/reactionGame.c ****     sint8_t currentDisplayVal = 0;
 770              		.loc 1 434 0
 771 0004 0020     		movs	r0, #0
 772 0006 02A9     		add	r1, sp, #8
 773 0008 01F8010D 		strb	r0, [r1, #-1]!
 435:source\asw/reactionGame.c ****     SEVEN_Get(SEVEN_0, &currentDisplayVal);
 774              		.loc 1 435 0
 775 000c FFF7FEFF 		bl	SEVEN_Get
 776              	.LVL81:
 436:source\asw/reactionGame.c **** 
 437:source\asw/reactionGame.c ****     /* Check if the correct button is pressed based on the SEVEN segment display value. */
 438:source\asw/reactionGame.c ****     if (currentDisplayVal == 1 && (BUTTON_IsPressed(Button_Right_1) || BUTTON_IsPressed(Button_Righ
 777              		.loc 1 438 0
 778 0010 9DF90730 		ldrsb	r3, [sp, #7]
 779 0014 012B     		cmp	r3, #1
 780 0016 07D1     		bne	.L56
 781              		.loc 1 438 0 is_stmt 0 discriminator 1
 782 0018 0020     		movs	r0, #0
 783 001a FFF7FEFF 		bl	BUTTON_IsPressed
ARM GAS  C:\Users\zakis\AppData\Local\Temp\cclDrXun.s 			page 23


 784              	.LVL82:
 785 001e 88B9     		cbnz	r0, .L58
 786              		.loc 1 438 0 discriminator 2
 787 0020 0120     		movs	r0, #1
 788 0022 FFF7FEFF 		bl	BUTTON_IsPressed
 789              	.LVL83:
 790 0026 78B9     		cbnz	r0, .L59
 791              	.L56:
 439:source\asw/reactionGame.c ****         return TRUE;
 440:source\asw/reactionGame.c ****     } else if (currentDisplayVal == 2 && (BUTTON_IsPressed(Button_Left_1) || BUTTON_IsPressed(Butto
 792              		.loc 1 440 0 is_stmt 1
 793 0028 9DF90730 		ldrsb	r3, [sp, #7]
 794 002c 022B     		cmp	r3, #2
 795 002e 0DD1     		bne	.L60
 796              		.loc 1 440 0 is_stmt 0 discriminator 1
 797 0030 0220     		movs	r0, #2
 798 0032 FFF7FEFF 		bl	BUTTON_IsPressed
 799              	.LVL84:
 800 0036 58B9     		cbnz	r0, .L61
 801              		.loc 1 440 0 discriminator 2
 802 0038 0320     		movs	r0, #3
 803 003a FFF7FEFF 		bl	BUTTON_IsPressed
 804              	.LVL85:
 805 003e 0346     		mov	r3, r0
 806 0040 40B9     		cbnz	r0, .L62
 807 0042 08E0     		b	.L57
 808              	.L58:
 439:source\asw/reactionGame.c ****         return TRUE;
 809              		.loc 1 439 0 is_stmt 1
 810 0044 0123     		movs	r3, #1
 811 0046 06E0     		b	.L57
 812              	.L59:
 813 0048 0123     		movs	r3, #1
 814 004a 04E0     		b	.L57
 815              	.L60:
 441:source\asw/reactionGame.c ****         return TRUE;
 442:source\asw/reactionGame.c ****     } else {
 443:source\asw/reactionGame.c ****         return FALSE;
 816              		.loc 1 443 0
 817 004c 0023     		movs	r3, #0
 818 004e 02E0     		b	.L57
 819              	.L61:
 441:source\asw/reactionGame.c ****         return TRUE;
 820              		.loc 1 441 0
 821 0050 0123     		movs	r3, #1
 822 0052 00E0     		b	.L57
 823              	.L62:
 824 0054 0123     		movs	r3, #1
 825              	.L57:
 444:source\asw/reactionGame.c ****     }
 445:source\asw/reactionGame.c **** }
 826              		.loc 1 445 0
 827 0056 1846     		mov	r0, r3
 828 0058 03B0     		add	sp, sp, #12
 829              		.cfi_def_cfa_offset 4
 830              		@ sp needed
 831 005a 5DF804FB 		ldr	pc, [sp], #4
ARM GAS  C:\Users\zakis\AppData\Local\Temp\cclDrXun.s 			page 24


 832              		.cfi_endproc
 833              	.LFE125:
 834              		.size	REACTION_correctButtonPressed, .-REACTION_correctButtonPressed
 835 005e 00BF     		.section	.rodata.str1.4,"aMS",%progbits,1
 836              		.align	2
 837              	.LC0:
 838 0000 0A57656C 		.ascii	"\012Welcome to the Reaction Game\012\000"
 838      636F6D65 
 838      20746F20 
 838      74686520 
 838      52656163 
 839 001f 00       		.space	1
 840              	.LC1:
 841 0020 50726573 		.ascii	"Press any of the right buttons for '1' and left but"
 841      7320616E 
 841      79206F66 
 841      20746865 
 841      20726967 
 842 0053 746F6E73 		.ascii	"tons for '2' \012\000"
 842      20666F72 
 842      20273227 
 842      200A00
 843 0062 0000     		.space	2
 844              	.LC2:
 845 0064 50726573 		.ascii	"Press any key to begin\012\012\000"
 845      7320616E 
 845      79206B65 
 845      7920746F 
 845      20626567 
 846 007d 000000   		.space	3
 847              	.LC3:
 848 0080 0A507265 		.ascii	"\012Press any key to play again\012\012\000"
 848      73732061 
 848      6E79206B 
 848      65792074 
 848      6F20706C 
 849 009f 00       		.space	1
 850              	.LC4:
 851 00a0 496E636F 		.ascii	"Incorrect Button Pressed\012\000"
 851      72726563 
 851      74204275 
 851      74746F6E 
 851      20507265 
 852 00ba 0000     		.space	2
 853              	.LC5:
 854 00bc 50726573 		.ascii	"Press any button to continue\012\012\000"
 854      7320616E 
 854      79206275 
 854      74746F6E 
 854      20746F20 
 855 00db 00       		.space	1
 856              	.LC6:
 857 00dc 54696D65 		.ascii	"Time ran out\012\000"
 857      2072616E 
 857      206F7574 
 857      0A00
 858 00ea 0000     		.space	2
ARM GAS  C:\Users\zakis\AppData\Local\Temp\cclDrXun.s 			page 25


 859              	.LC7:
 860 00ec 0A436F72 		.ascii	"\012Correct presses : \000"
 860      72656374 
 860      20707265 
 860      73736573 
 860      203A2000 
 861              	.LC8:
 862 0100 0A546F74 		.ascii	"\012Total time : \000"
 862      616C2074 
 862      696D6520 
 862      3A2000
 863 010f 00       		.space	1
 864              	.LC9:
 865 0110 0A417665 		.ascii	"\012Average time : \000"
 865      72616765 
 865      2074696D 
 865      65203A20 
 865      00
 866 0121 000000   		.space	3
 867              	.LC10:
 868 0124 47726561 		.ascii	"Great! Correct Button Pressed\012\000"
 868      74212043 
 868      6F727265 
 868      63742042 
 868      7574746F 
 869 0143 00       		.space	1
 870              	.LC11:
 871 0144 52656163 		.ascii	"Reaction Time in ms: \000"
 871      74696F6E 
 871      2054696D 
 871      6520696E 
 871      206D733A 
 872 015a 0000     		.space	2
 873              	.LC12:
 874 015c 0A507265 		.ascii	"\012Press any button to continue\012\012\000"
 874      73732061 
 874      6E792062 
 874      7574746F 
 874      6E20746F 
 875              	.LC13:
 876 017c 0A526F75 		.ascii	"\012Round \000"
 876      6E642000 
 877              	.LC14:
 878 0184 20737461 		.ascii	" started!\012\000"
 878      72746564 
 878      210A00
 879              		.text
 880              	.Letext0:
 881              		.file 2 "c:\\program files (x86)\\cypress\\psoc creator\\4.4\\psoc creator\\import\\gnu\\arm\\5.4.
 882              		.file 3 "c:\\program files (x86)\\cypress\\psoc creator\\4.4\\psoc creator\\import\\gnu\\arm\\5.4.
 883              		.file 4 "Generated_Source\\PSoC5/ErikaOS_common_ee_types.inc"
 884              		.file 5 "Generated_Source\\PSoC5/ErikaOS_cortex_mx_ee_cpu.inc"
 885              		.file 6 ".\\source\\bsw/global.h"
 886              		.file 7 "source\\asw\\reactionGame.h"
 887              		.file 8 ".\\source\\bsw/seven.h"
 888              		.file 9 ".\\source\\bsw/button.h"
 889              		.file 10 "Generated_Source\\PSoC5/ErikaOS_ee_oo_intfunc.inc"
ARM GAS  C:\Users\zakis\AppData\Local\Temp\cclDrXun.s 			page 26


 890              		.file 11 "Generated_Source\\PSoC5/ErikaOS_cortex_mx_ee_context.inc"
 891              		.file 12 "Generated_Source\\PSoC5/ErikaOS_common_ee_primitives.inc"
 892              		.file 13 "Generated_Source\\PSoC5/core_cm3.h"
 893              		.file 14 "Generated_Source\\PSoC5/UART_Logs.h"
 894              		.file 15 "Generated_Source\\PSoC5/Clock_Counter_RG.h"
 895              		.file 16 "c:\\program files (x86)\\cypress\\psoc creator\\4.4\\psoc creator\\import\\gnu\\arm\\5.4
 896              		.file 17 "c:\\program files (x86)\\cypress\\psoc creator\\4.4\\psoc creator\\import\\gnu\\arm\\5.4
 897              		.file 18 "Generated_Source\\PSoC5/Counter.h"